(lp0
(dp1
S'vel'
p2
F1394.0
sS'Photometry'
p3
ccopy_reg
_reconstructor
p4
(castropy.table.table
Table
p5
c__builtin__
object
p6
Ntp7
Rp8
(ccollections
OrderedDict
p9
((lp10
(lp11
S'No.'
p12
acnumpy.ma.core
_mareconstruct
p13
(castropy.table.column
MaskedColumn
p14
castropy.table.column
BaseColumn
p15
(I0
tp16
S'b'
p17
tp18
Rp19
(I1
(I11
tp20
cnumpy
dtype
p21
(S'i4'
p22
I0
I1
tp23
Rp24
(I3
S'<'
p25
NNNI-1
I-1
I0
tp26
bI00
S'\x01\x00\x00\x00\x02\x00\x00\x00\x03\x00\x00\x00\x04\x00\x00\x00\x05\x00\x00\x00\x06\x00\x00\x00\x07\x00\x00\x00\x08\x00\x00\x00\t\x00\x00\x00\n\x00\x00\x00\x0b\x00\x00\x00'
p27
S'\x00\x00\x00\x00\x00\x00\x00\x00\x00\x00\x00'
p28
cnumpy.core.multiarray
_reconstruct
p29
(cnumpy
ndarray
p30
(I0
tp31
g17
tp32
Rp33
(I1
(tg24
I00
S'?B\x0f\x00'
p34
tp35
b(g12
NNVA sequential number of Photometry Measurement for this object, applicable to this list only.
p36
g9
((lp37
(lp38
Vucd
p39
aVmeta.number;phot.mag
p40
aatp41
Rp42
(lp43
tp44
tp45
baa(lp46
S'Observed Passband'
p47
ag13
(g14
g15
g16
g17
tp48
Rp49
(I1
(I11
tp50
g21
(S'O8'
p51
I0
I1
tp52
Rp53
(I3
S'|'
p54
NNNI-1
I-1
I63
tp55
bI00
(lp56
S'B (Cousins) (B_T)'
p57
aS'B (Cousins) (B_25)'
p58
aS'B (Cousins) (B_26)'
p59
aS'b_J'
p60
aS'B_J'
p61
aS'R (Cousins) (R_26)'
p62
aS'R (Cousins) (R_T)'
p63
aS'R (Cousins) (R_25)'
p64
aS'R'
p65
aS'I'
p66
aS'HI line (Parkes)'
p67
aS'\x00\x00\x00\x00\x00\x00\x00\x00\x00\x00\x00'
p68
g29
(g30
(I0
tp69
g17
tp70
Rp71
(I1
(tg53
I00
(lp72
S'?'
p73
atp74
b(g47
NNVColloquial descriptions of the frequency or wavelength at which the data were collected, identifying the bandpass by name e.g., "V","1.4GHz", "6 cm", "HI", etc.
p75
g9
((lp76
(lp77
g39
aVinstr.bandpass
p78
aatp79
Rp80
(lp81
tp82
tp83
baa(lp84
S'Photometry Measurement'
p85
ag13
(g14
g15
g16
g17
tp86
Rp87
(I1
(I11
tp88
g21
(S'f8'
p89
I0
I1
tp90
Rp91
(I3
S'<'
p92
NNNI-1
I-1
I0
tp93
bI00
S"\xd7\xa3p=\nW.@=\n\xd7\xa3p\xbd.@\x14\xaeG\xe1z\x94.@\xe1z\x14\xaeGa.@\xaa`TR'`.@fffff\xe6-@\x9a\x99\x99\x99\x99\x99-@\x9a\x99\x99\x99\x99\x19.@z6\xab>W[.@\xe6?\xa4\xdf\xbeN.@\x00\x00\x00\x00\x00\x00\x1c@"
p94
S'\x00\x00\x00\x00\x00\x00\x00\x00\x00\x00\x00'
p95
g29
(g30
(I0
tp96
g17
tp97
Rp98
(I1
(tg91
I00
S'@\x8c\xb5x\x1d\xaf\x15D'
p99
tp100
b(g85
NV{!r:>}
p101
VThe published photometry or fluxes  for this point.
p102
g9
((lp103
(lp104
g39
aVphot
p105
aatp106
Rp107
(lp108
tp109
tp110
baa(lp111
S'Uncertainty'
p112
ag13
(g14
g15
g16
g17
tp113
Rp114
(I1
(I11
tp115
g53
I00
(lp116
S'+/-0.09'
p117
aS'+/-0.09'
p118
aS'+/-0.09'
p119
aS'+/-0.12'
p120
aS''
p121
aS'+/-0.09'
p122
aS'+/-0.09'
p123
aS'+/-0.09'
p124
ag121
ag121
ag121
aS'\x00\x00\x00\x00\x00\x00\x00\x00\x00\x00\x00'
p125
g29
(g30
(I0
tp126
g17
tp127
Rp128
(I1
(tg53
I00
(lp129
g73
atp130
b(g112
NNVThe published uncertainty for photometric data.
p131
g9
((lp132
(lp133
g39
aVstat.error;phot
p134
aatp135
Rp136
(lp137
tp138
tp139
baa(lp140
S'Units'
p141
ag13
(g14
g15
g16
g17
tp142
Rp143
(I1
(I11
tp144
g53
I00
(lp145
S'mag'
p146
aS'mag'
p147
aS'mag'
p148
aS'mag'
p149
aS'mag'
p150
aS'mag'
p151
aS'mag'
p152
aS'mag'
p153
aS'mag'
p154
aS'mag'
p155
aS'Jy km s^-1^'
p156
aS'\x00\x00\x00\x00\x00\x00\x00\x00\x00\x00\x00'
p157
g29
(g30
(I0
tp158
g17
tp159
Rp160
(I1
(tg53
I00
(lp161
g73
atp162
b(g141
NNVUnits of photometry measurement for this point.
p163
g9
((lp164
(lp165
g39
aVmeta.unit;phot
p166
aatp167
Rp168
(lp169
tp170
tp171
baa(lp172
S'Frequency'
p173
ag13
(g14
g15
g16
g17
tp174
Rp175
(I1
(I11
tp176
g91
I00
S'\x00\x80\xbcX\xedZ\x03C\x00\x80\xbcX\xedZ\x03C\x00\x80\xbcX\xedZ\x03C\x00\x80h\x8a\xe37\x02C\x00\x80h\x8a\xe37\x02C\x00\x00\x14\xdcK\x9a\xfaB\x00\x00\x14\xdcK\x9a\xfaB\x00\x00\x14\xdcK\x9a\xfaB\x00\x00\x14\xdcK\x9a\xfaB\x00\x00\xeb\x05-\x8b\xf5B\x00\x00\x00\xc0\xde(\xd5A'
p177
S'\x00\x00\x00\x00\x00\x00\x00\x00\x00\x00\x00'
p178
g29
(g30
(I0
tp179
g17
tp180
Rp181
(I1
(tg91
I00
S'@\x8c\xb5x\x1d\xaf\x15D'
p182
tp183
b(g173
g4
(castropy.units.core
PrefixUnit
p184
g6
Ntp185
Rp186
(dp187
S'_format'
p188
(dp189
Vlatex
p190
V\u005cmu m
p191
sVunicode
p192
V\u03bcm
p193
ssS'_short_names'
p194
(lp195
Vum
p196
asS'_names'
p197
(lp198
g196
asS'_represents'
p199
g4
(castropy.units.core
CompositeUnit
p200
g6
Ntp201
Rp202
(dp203
S'_decomposed_cache'
p204
NsS'_powers'
p205
(lp206
I1
asS'_scale'
p207
F1e-06
sS'_hash'
p208
NsS'_bases'
p209
(lp210
g4
(castropy.units.core
Unit
p211
g6
Ntp212
Rp213
(dp214
g188
(dp215
sg194
(lp216
Vm
p217
asg197
(lp218
g217
asg199
castropy.units.core
_recreate_irreducible_unit
p219
(castropy.units.core
IrreducibleUnit
p220
(lp221
Vm
p222
aVmeter
p223
aI01
tp224
Rp225
(dp226
g188
(dp227
sg194
(lp228
g222
asg197
(lp229
g222
ag223
asS'__doc__'
p230
Vmeter: base unit of length in SI
p231
sS'_long_names'
p232
(lp233
g223
asbsg230
Vmeter
p234
sg232
(lp235
sbasbsg230
g196
sg232
(lp236
sbV{!r:>}
p237
VThe frequency, wavelength, or photometric passband, in absolute units as calculated by NED
p238
g9
((lp239
(lp240
g39
aVem.freq
p241
aatp242
Rp243
(lp244
tp245
tp246
baa(lp247
S'NED Photometry Measurement'
p248
ag13
(g14
g15
g16
g17
tp249
Rp250
(I1
(I11
tp251
g91
I00
S'6Y\xa3\x1e\xa2\xd1m?5)\x05\xdd^\xd2h?\x0b{\xda\xe1\xaf\xc9j?\x18\xec\x86m\x8b2k?\x18\xec\x86m\x8b2k?\xd0\xd0?\xc1\xc5\x8aj?\xac\xad\xd8_vOn?\xed\r\xbe0\x99*h?\xfd\xd9\x8f\x14\x91ae?\x98Q,\xb7\xb4\x1ab?\x00\x00\x00\x00\x00\x1d\xe0@'
p252
S'\x00\x00\x00\x00\x00\x00\x00\x00\x00\x00\x00'
p253
g29
(g30
(I0
tp254
g17
tp255
Rp256
(I1
(tg91
I00
S'@\x8c\xb5x\x1d\xaf\x15D'
p257
tp258
b(g248
g4
(g211
g6
Ntp259
Rp260
(dp261
g188
(dp262
sg194
(lp263
VJy
p264
asg197
(lp265
g264
asg199
g4
(g211
g6
Ntp266
Rp267
(dp268
g188
(dp269
sg194
(lp270
VJy
p271
asg197
(lp272
g271
aVJansky
p273
aVjansky
p274
asg199
g4
(g200
g6
Ntp275
Rp276
(dp277
g204
g4
(g200
g6
Ntp278
Rp279
(dp280
g204
Nsg205
(lp281
I1
aI-2
asg207
F1e-26
sg208
Nsg209
(lp282
g219
(g220
(lp283
Vkg
p284
aVkilogram
p285
aI01
tp286
Rp287
(dp288
g188
(dp289
sg194
(lp290
g284
asg197
(lp291
g284
ag285
asg230
Vkilogram: base unit of mass in SI.
p292
sg232
(lp293
g285
asbag219
(g220
(lp294
Vs
p295
aVsecond
p296
aI01
tp297
Rp298
(dp299
g188
(dp300
sg194
(lp301
g295
asg197
(lp302
g295
ag296
asg230
Vsecond: base unit of time in SI.
p303
sg232
(lp304
g296
asbasbsg205
(lp305
I1
aI-1
aI-2
asg207
F1e-26
sg208
I2552863569195047370
sg209
(lp306
g4
(g211
g6
Ntp307
Rp308
(dp309
g188
(dp310
sg194
(lp311
VW
p312
asg197
(lp313
g312
aVWatt
p314
aVwatt
p315
asg199
g4
(g200
g6
Ntp316
Rp317
(dp318
g204
g4
(g200
g6
Ntp319
Rp320
(dp321
g204
g320
sg205
(lp322
I2
aI1
aI-3
asg207
F1.0
sg208
Nsg209
(lp323
g225
ag287
ag298
asbsg205
(lp324
I1
aI-1
asg207
F1.0
sg208
I4600751733001928972
sg209
(lp325
g4
(g211
g6
Ntp326
Rp327
(dp328
g188
(dp329
sg194
(lp330
VJ
p331
asg197
(lp332
g331
aVJoule
p333
aVjoule
p334
asg199
g4
(g200
g6
Ntp335
Rp336
(dp337
g204
g4
(g200
g6
Ntp338
Rp339
(dp340
g204
g339
sg205
(lp341
I2
aI1
aI-2
asg207
F1.0
sg208
Nsg209
(lp342
g225
ag287
ag298
asbsg205
(lp343
I1
aI1
asg207
F1.0
sg208
I5380359587502812202
sg209
(lp344
g4
(g211
g6
Ntp345
Rp346
(dp347
g188
(dp348
sg194
(lp349
VN
p350
asg197
(lp351
g350
aVNewton
p352
aVnewton
p353
asg199
g4
(g200
g6
Ntp354
Rp355
(dp356
g204
g355
sg205
(lp357
I1
aI1
aI-2
asg207
F1.0
sg208
I5284843175312972344
sg209
(lp358
g287
ag225
ag298
asbsg230
VNewton: force
p359
sg232
(lp360
g352
ag353
asbag225
asbsg230
VJoule: energy
p361
sg232
(lp362
g333
ag334
asbag298
asbsg230
VWatt: power
p363
sg232
(lp364
g314
ag315
asbag4
(g211
g6
Ntp365
Rp366
(dp367
g188
(dp368
sg194
(lp369
VHz
p370
asg197
(lp371
g370
aVHertz
p372
aVhertz
p373
asg199
g4
(g200
g6
Ntp374
Rp375
(dp376
g204
g375
sg205
(lp377
I-1
asg207
F1.0
sg208
I-5125901030471180199
sg209
(lp378
g298
asbsg230
VFrequency
p379
sg232
(lp380
g372
ag373
asbag225
asbsg230
VJansky: spectral flux density
p381
sg232
(lp382
g273
ag274
asbsg230
VJansky
p383
sg232
(lp384
sbV{!r:>}
p385
VFlux/Photometric data for this point as transformed and stored by NED.
p386
g9
((lp387
(lp388
g39
aVphot
p389
aatp390
Rp391
(lp392
tp393
tp394
baa(lp395
S'NED Uncertainty'
p396
ag13
(g14
g15
g16
g17
tp397
Rp398
(I1
(I11
tp399
g53
I00
(lp400
S'+/-3.14E-04'
p401
aS'+/-2.62E-04'
p402
aS'+/-2.83E-04'
p403
aS'+/-3.88E-04'
p404
ag121
aS'+/-2.80E-04'
p405
aS'+/-3.20E-04'
p406
aS'+/-2.55E-04'
p407
ag121
ag121
ag121
aS'\x00\x00\x00\x00\x00\x00\x00\x00\x00\x00\x00'
p408
g29
(g30
(I0
tp409
g17
tp410
Rp411
(I1
(tg53
I00
(lp412
g73
atp413
b(g396
NNVPhotometric/Flux uncertainty as transformed and stored by NED.
p414
g9
((lp415
(lp416
g39
aVstat.error;phot
p417
aatp418
Rp419
(lp420
tp421
tp422
baa(lp423
S'NED Units'
p424
ag13
(g14
g15
g16
g17
tp425
Rp426
(I1
(I11
tp427
g53
I00
(lp428
S'Jy'
p429
aS'Jy'
p430
aS'Jy'
p431
aS'Jy'
p432
aS'Jy'
p433
aS'Jy'
p434
aS'Jy'
p435
aS'Jy'
p436
aS'Jy'
p437
aS'Jy'
p438
aS'Jy-Hz'
p439
aS'\x00\x00\x00\x00\x00\x00\x00\x00\x00\x00\x00'
p440
g29
(g30
(I0
tp441
g17
tp442
Rp443
(I1
(tg53
I00
(lp444
g73
atp445
b(g424
NNVAbsolute units of photometry measurement for this point.
p446
g9
((lp447
(lp448
g39
aVmeta.unit;phot
p449
aatp450
Rp451
(lp452
tp453
tp454
baa(lp455
S'Refcode'
p456
ag13
(g14
g15
g16
g17
tp457
Rp458
(I1
(I11
tp459
g53
I00
(lp460
S'1989ESOLV.C...0000L'
p461
aS'1989ESOLV.C...0000L'
p462
aS'1989ESOLV.C...0000L'
p463
aS'1990MNRAS.243..692M'
p464
aS'2005MNRAS.361...34D'
p465
aS'1989ESOLV.C...0000L'
p466
aS'1989ESOLV.C...0000L'
p467
aS'1989ESOLV.C...0000L'
p468
aS'2005MNRAS.361...34D'
p469
aS'2005MNRAS.361...34D'
p470
aS'2005MNRAS.361...34D'
p471
aS'\x00\x00\x00\x00\x00\x00\x00\x00\x00\x00\x00'
p472
g29
(g30
(I0
tp473
g17
tp474
Rp475
(I1
(tg53
I00
(lp476
g73
atp477
b(g456
NNVThe NED 19-digit Bibliographic Reference code.
p478
g9
((lp479
(lp480
g39
aVmeta.bib.bibcode
p481
aatp482
Rp483
(lp484
tp485
tp486
baa(lp487
S'Significance'
p488
ag13
(g14
g15
g16
g17
tp489
Rp490
(I1
(I11
tp491
g53
I00
(lp492
S'typical accuracy'
p493
aS'typical accuracy'
p494
aS'typical accuracy'
p495
aS'rms uncertainty'
p496
aS'no uncertainty reported'
p497
aS'typical accuracy'
p498
aS'typical accuracy'
p499
aS'typical accuracy'
p500
aS'no uncertainty reported'
p501
aS'no uncertainty reported'
p502
aS'no uncertainty reported'
p503
aS'\x00\x00\x00\x00\x00\x00\x00\x00\x00\x00\x00'
p504
g29
(g30
(I0
tp505
g17
tp506
Rp507
(I1
(tg53
I00
(lp508
g73
atp509
b(g488
NNVType of uncertainty reported in the original publication
p510
g9
((lp511
(lp512
g39
aVmeta.code.error
p513
aatp514
Rp515
(lp516
tp517
tp518
baa(lp519
S'Published frequency'
p520
ag13
(g14
g15
g16
g17
tp521
Rp522
(I1
(I11
tp523
g53
I00
(lp524
S'4400       A'
p525
aS'4400       A'
p526
aS'4400       A'
p527
aS'4680      A'
p528
aS'4680   A'
p529
aS'6400       A'
p530
aS'6400       A'
p531
aS'6400       A'
p532
aS'6400   A'
p533
aS'7900   A'
p534
aS'1395.9     km s^-1^'
p535
aS'\x00\x00\x00\x00\x00\x00\x00\x00\x00\x00\x00'
p536
g29
(g30
(I0
tp537
g17
tp538
Rp539
(I1
(tg53
I00
(lp540
g73
atp541
b(g520
NNVWavelength or frequency  of observation as given in the original publication
p542
g9
((lp543
(lp544
g39
aVmeta.ref;em.freq
p545
aatp546
Rp547
(lp548
tp549
tp550
baa(lp551
S'Frequency Mode'
p552
ag13
(g14
g15
g16
g17
tp553
Rp554
(I1
(I11
tp555
g53
I00
(lp556
S'Broad-band measurement; photometric system transformed'
p557
aS'Broad-band measurement; photometric system transformed'
p558
aS'Broad-band measurement; photometric system transformed'
p559
aS'Broad-band measurement'
p560
aS'Broad-band measurement'
p561
aS'Broad-band measurement; photometric system transformed'
p562
aS'Broad-band measurement; photometric system transformed'
p563
aS'Broad-band measurement; photometric system transformed'
p564
aS'Broad-band measurement'
p565
aS'Broad-band measurement'
p566
aS'Line measurement; flux integrated over line; lines measured in emission'
p567
aS'\x00\x00\x00\x00\x00\x00\x00\x00\x00\x00\x00'
p568
g29
(g30
(I0
tp569
g17
tp570
Rp571
(I1
(tg53
I00
(lp572
g73
atp573
b(g552
NNVThe method(s) by which the data were collected, reduced, or derived, regarding the frequency or wavelength;
p574
g9
((lp575
(lp576
g39
aVmeta.ref;em.freq;instr.setup
p577
aatp578
Rp579
(lp580
tp581
tp582
baa(lp583
S'Coordinates Targeted'
p584
ag13
(g14
g15
g16
g17
tp585
Rp586
(I1
(I11
tp587
g53
I00
(lp588
S'220447 -4331.5 (B1950)'
p589
aS'220447 -4331.5 (B1950)'
p590
aS'220447 -4331.5 (B1950)'
p591
aS'220447.09 -433124.7 (B1950)'
p592
aS'220750.9 -431642.6 (J2000)'
p593
aS'220447 -4331.5 (B1950)'
p594
aS'220447 -4331.5 (B1950)'
p595
aS'220447 -4331.5 (B1950)'
p596
aS'220750.9 -431642.6 (J2000)'
p597
aS'220750.9 -431642.6 (J2000)'
p598
aS'220743.1 -431458. (J2000)'
p599
aS'\x00\x00\x00\x00\x00\x00\x00\x00\x00\x00\x00'
p600
g29
(g30
(I0
tp601
g17
tp602
Rp603
(I1
(tg53
I00
(lp604
g73
atp605
b(g584
NNVThe position at which the measurements were taken, followed by the coordinate reference frame (e.g.,  013350.90 +303935.8 (J2000) in format HHMMSS.ss +DDMMSS.s (EQUINOX),  etc.).
p606
g9
((lp607
(lp608
g39
aVpos
p609
aatp610
Rp611
(lp612
tp613
tp614
baa(lp615
S'Spatial Mode'
p616
ag13
(g14
g15
g16
g17
tp617
Rp618
(I1
(I11
tp619
g53
I00
(lp620
S'Modelled datum'
p621
aS'Modelled datum'
p622
aS'Modelled datum'
p623
aS'Flux integrated from map'
p624
aS'Flux in fixed aperture'
p625
aS'Modelled datum'
p626
aS'Modelled datum'
p627
aS'Modelled datum'
p628
aS'Flux in fixed aperture'
p629
aS'Flux in fixed aperture'
p630
aS'Flux integrated from map'
p631
aS'\x00\x00\x00\x00\x00\x00\x00\x00\x00\x00\x00'
p632
g29
(g30
(I0
tp633
g17
tp634
Rp635
(I1
(tg53
I00
(lp636
g73
atp637
b(g616
NNVThe method(s) by which the data were collected, reduced, or derived, regarding the spatially integrated flux
p638
g9
((lp639
(lp640
g39
aVphot.flux;instr.setup
p641
aatp642
Rp643
(lp644
tp645
tp646
baa(lp647
S'Qualifiers'
p648
ag13
(g14
g15
g16
g17
tp649
Rp650
(I1
(I11
tp651
g53
I00
(lp652
g121
ag121
ag121
ag121
ag121
ag121
ag121
ag121
ag121
ag121
ag121
aS'\x00\x00\x00\x00\x00\x00\x00\x00\x00\x00\x00'
p653
g29
(g30
(I0
tp654
g17
tp655
Rp656
(I1
(tg53
I00
(lp657
g73
atp658
b(g648
NNVSelf-explanatory notes pertaining to the history of the data or adjustments to the data or hanges introduced by NED
p659
g9
((lp660
(lp661
g39
aVmeta.note;instr.setup
p662
aatp663
Rp664
(lp665
tp666
tp667
baa(lp668
S'Comments'
p669
ag13
(g14
g15
g16
g17
tp670
Rp671
(I1
(I11
tp672
g53
I00
(lp673
S'From new raw data'
p674
aS'From new raw data'
p675
aS'From new raw data'
p676
aS'From new raw data'
p677
aS'From new raw data'
p678
aS'From new raw data'
p679
aS'From new raw data'
p680
aS'From new raw data'
p681
aS'From new raw data'
p682
aS'From new raw data'
p683
aS'Averaged from previously published data'
p684
aS'\x00\x00\x00\x00\x00\x00\x00\x00\x00\x00\x00'
p685
g29
(g30
(I0
tp686
g17
tp687
Rp688
(I1
(tg53
I00
(lp689
g73
atp690
b(g669
NNVOther information from the published source or from NED that may be helpful in interpreting or qualifying the data.
p691
g9
((lp692
(lp693
g39
aVmeta.note;comment
p694
aatp695
Rp696
(lp697
tp698
tp699
baatp700
Rp701
(dp702
Vdescription
p703
VPublished and Homogenized [Frequency, Flux Density] Units
p704
sVname
p705
VPhotometric Data for ESO 288-???042
p706
sVID
p707
VNED_PhotometricData
p708
stp709
bsS'Type'
p710
S'G'
p711
sS'Name'
p712
cnumpy.core.multiarray
scalar
p713
(g21
(S'S14'
p714
I0
I1
tp715
Rp716
(I3
S'|'
p717
NNNI14
I1
I0
tp718
bS'ESO 288-IG 042'
p719
tp720
Rp721
sS'Coord'
p722
(lp723
g713
(g91
S'2\xe6\xae%d\xbft@'
p724
tp725
Rp726
ag713
(g91
S'\x0f\x7fM\xd6\xa8\xa3E\xc0'
p727
tp728
Rp729
asa(dp730
g2
F866.0
sg3
g4
(g5
g6
Ntp731
Rp732
(g9
((lp733
(lp734
S'No.'
p735
ag13
(g14
g15
g16
g17
tp736
Rp737
(I1
(I1
tp738
g24
I00
S'\x01\x00\x00\x00'
p739
S'\x00'
p740
g29
(g30
(I0
tp741
g17
tp742
Rp743
(I1
(tg24
I00
S'?B\x0f\x00'
p744
tp745
b(g735
NNVA sequential number of Photometry Measurement for this object, applicable to this list only.
p746
g9
((lp747
(lp748
g39
aVmeta.number;phot.mag
p749
aatp750
Rp751
(lp752
tp753
tp754
baa(lp755
S'Observed Passband'
p756
ag13
(g14
g15
g16
g17
tp757
Rp758
(I1
(I1
tp759
g53
I00
(lp760
S'b_J'
p761
ag740
g29
(g30
(I0
tp762
g17
tp763
Rp764
(I1
(tg53
I00
(lp765
g73
atp766
b(g756
NNVColloquial descriptions of the frequency or wavelength at which the data were collected, identifying the bandpass by name e.g., "V","1.4GHz", "6 cm", "HI", etc.
p767
g9
((lp768
(lp769
g39
aVinstr.bandpass
p770
aatp771
Rp772
(lp773
tp774
tp775
baa(lp776
S'Photometry Measurement'
p777
ag13
(g14
g15
g16
g17
tp778
Rp779
(I1
(I1
tp780
g91
I00
S'R\xb8\x1e\x85\xebQ3@'
p781
g740
g29
(g30
(I0
tp782
g17
tp783
Rp784
(I1
(tg91
I00
S'@\x8c\xb5x\x1d\xaf\x15D'
p785
tp786
b(g777
NV{!r:>}
p787
VThe published photometry or fluxes  for this point.
p788
g9
((lp789
(lp790
g39
aVphot
p791
aatp792
Rp793
(lp794
tp795
tp796
baa(lp797
S'Uncertainty'
p798
ag13
(g14
g15
g16
g17
tp799
Rp800
(I1
(I1
tp801
g53
I00
(lp802
S'+/-0.12'
p803
ag740
g29
(g30
(I0
tp804
g17
tp805
Rp806
(I1
(tg53
I00
(lp807
g73
atp808
b(g798
NNVThe published uncertainty for photometric data.
p809
g9
((lp810
(lp811
g39
aVstat.error;phot
p812
aatp813
Rp814
(lp815
tp816
tp817
baa(lp818
S'Units'
p819
ag13
(g14
g15
g16
g17
tp820
Rp821
(I1
(I1
tp822
g53
I00
(lp823
S'mag'
p824
ag740
g29
(g30
(I0
tp825
g17
tp826
Rp827
(I1
(tg53
I00
(lp828
g73
atp829
b(g819
NNVUnits of photometry measurement for this point.
p830
g9
((lp831
(lp832
g39
aVmeta.unit;phot
p833
aatp834
Rp835
(lp836
tp837
tp838
baa(lp839
S'Frequency'
p840
ag13
(g14
g15
g16
g17
tp841
Rp842
(I1
(I1
tp843
g91
I00
S'\x00\x80h\x8a\xe37\x02C'
p844
g740
g29
(g30
(I0
tp845
g17
tp846
Rp847
(I1
(tg91
I00
S'@\x8c\xb5x\x1d\xaf\x15D'
p848
tp849
b(g840
g186
V{!r:>}
p850
VThe frequency, wavelength, or photometric passband, in absolute units as calculated by NED
p851
g9
((lp852
(lp853
g39
aVem.freq
p854
aatp855
Rp856
(lp857
tp858
tp859
baa(lp860
S'NED Photometry Measurement'
p861
ag13
(g14
g15
g16
g17
tp862
Rp863
(I1
(I1
tp864
g91
I00
S'\x7f\xab+UX_\x13?'
p865
g740
g29
(g30
(I0
tp866
g17
tp867
Rp868
(I1
(tg91
I00
S'@\x8c\xb5x\x1d\xaf\x15D'
p869
tp870
b(g861
g260
V{!r:>}
p871
VFlux/Photometric data for this point as transformed and stored by NED.
p872
g9
((lp873
(lp874
g39
aVphot
p875
aatp876
Rp877
(lp878
tp879
tp880
baa(lp881
S'NED Uncertainty'
p882
ag13
(g14
g15
g16
g17
tp883
Rp884
(I1
(I1
tp885
g53
I00
(lp886
S'+/-8.64E-06'
p887
ag740
g29
(g30
(I0
tp888
g17
tp889
Rp890
(I1
(tg53
I00
(lp891
g73
atp892
b(g882
NNVPhotometric/Flux uncertainty as transformed and stored by NED.
p893
g9
((lp894
(lp895
g39
aVstat.error;phot
p896
aatp897
Rp898
(lp899
tp900
tp901
baa(lp902
S'NED Units'
p903
ag13
(g14
g15
g16
g17
tp904
Rp905
(I1
(I1
tp906
g53
I00
(lp907
S'Jy'
p908
ag740
g29
(g30
(I0
tp909
g17
tp910
Rp911
(I1
(tg53
I00
(lp912
g73
atp913
b(g903
NNVAbsolute units of photometry measurement for this point.
p914
g9
((lp915
(lp916
g39
aVmeta.unit;phot
p917
aatp918
Rp919
(lp920
tp921
tp922
baa(lp923
S'Refcode'
p924
ag13
(g14
g15
g16
g17
tp925
Rp926
(I1
(I1
tp927
g53
I00
(lp928
S'1990MNRAS.243..692M'
p929
ag740
g29
(g30
(I0
tp930
g17
tp931
Rp932
(I1
(tg53
I00
(lp933
g73
atp934
b(g924
NNVThe NED 19-digit Bibliographic Reference code.
p935
g9
((lp936
(lp937
g39
aVmeta.bib.bibcode
p938
aatp939
Rp940
(lp941
tp942
tp943
baa(lp944
S'Significance'
p945
ag13
(g14
g15
g16
g17
tp946
Rp947
(I1
(I1
tp948
g53
I00
(lp949
S'rms uncertainty'
p950
ag740
g29
(g30
(I0
tp951
g17
tp952
Rp953
(I1
(tg53
I00
(lp954
g73
atp955
b(g945
NNVType of uncertainty reported in the original publication
p956
g9
((lp957
(lp958
g39
aVmeta.code.error
p959
aatp960
Rp961
(lp962
tp963
tp964
baa(lp965
S'Published frequency'
p966
ag13
(g14
g15
g16
g17
tp967
Rp968
(I1
(I1
tp969
g53
I00
(lp970
S'4680      A'
p971
ag740
g29
(g30
(I0
tp972
g17
tp973
Rp974
(I1
(tg53
I00
(lp975
g73
atp976
b(g966
NNVWavelength or frequency  of observation as given in the original publication
p977
g9
((lp978
(lp979
g39
aVmeta.ref;em.freq
p980
aatp981
Rp982
(lp983
tp984
tp985
baa(lp986
S'Frequency Mode'
p987
ag13
(g14
g15
g16
g17
tp988
Rp989
(I1
(I1
tp990
g53
I00
(lp991
S'Broad-band measurement'
p992
ag740
g29
(g30
(I0
tp993
g17
tp994
Rp995
(I1
(tg53
I00
(lp996
g73
atp997
b(g987
NNVThe method(s) by which the data were collected, reduced, or derived, regarding the frequency or wavelength;
p998
g9
((lp999
(lp1000
g39
aVmeta.ref;em.freq;instr.setup
p1001
aatp1002
Rp1003
(lp1004
tp1005
tp1006
baa(lp1007
S'Coordinates Targeted'
p1008
ag13
(g14
g15
g16
g17
tp1009
Rp1010
(I1
(I1
tp1011
g53
I00
(lp1012
S'221242.56 -281839.4 (B1950)'
p1013
ag740
g29
(g30
(I0
tp1014
g17
tp1015
Rp1016
(I1
(tg53
I00
(lp1017
g73
atp1018
b(g1008
NNVThe position at which the measurements were taken, followed by the coordinate reference frame (e.g.,  013350.90 +303935.8 (J2000) in format HHMMSS.ss +DDMMSS.s (EQUINOX),  etc.).
p1019
g9
((lp1020
(lp1021
g39
aVpos
p1022
aatp1023
Rp1024
(lp1025
tp1026
tp1027
baa(lp1028
S'Spatial Mode'
p1029
ag13
(g14
g15
g16
g17
tp1030
Rp1031
(I1
(I1
tp1032
g53
I00
(lp1033
S'Flux integrated from map'
p1034
ag740
g29
(g30
(I0
tp1035
g17
tp1036
Rp1037
(I1
(tg53
I00
(lp1038
g73
atp1039
b(g1029
NNVThe method(s) by which the data were collected, reduced, or derived, regarding the spatially integrated flux
p1040
g9
((lp1041
(lp1042
g39
aVphot.flux;instr.setup
p1043
aatp1044
Rp1045
(lp1046
tp1047
tp1048
baa(lp1049
S'Qualifiers'
p1050
ag13
(g14
g15
g16
g17
tp1051
Rp1052
(I1
(I1
tp1053
g53
I00
(lp1054
g121
ag740
g29
(g30
(I0
tp1055
g17
tp1056
Rp1057
(I1
(tg53
I00
(lp1058
g73
atp1059
b(g1050
NNVSelf-explanatory notes pertaining to the history of the data or adjustments to the data or hanges introduced by NED
p1060
g9
((lp1061
(lp1062
g39
aVmeta.note;instr.setup
p1063
aatp1064
Rp1065
(lp1066
tp1067
tp1068
baa(lp1069
S'Comments'
p1070
ag13
(g14
g15
g16
g17
tp1071
Rp1072
(I1
(I1
tp1073
g53
I00
(lp1074
S'From new raw data'
p1075
ag740
g29
(g30
(I0
tp1076
g17
tp1077
Rp1078
(I1
(tg53
I00
(lp1079
g73
atp1080
b(g1070
NNVOther information from the published source or from NED that may be helpful in interpreting or qualifying the data.
p1081
g9
((lp1082
(lp1083
g39
aVmeta.note;comment
p1084
aatp1085
Rp1086
(lp1087
tp1088
tp1089
baatp1090
Rp1091
(dp1092
g703
VPublished and Homogenized [Frequency, Flux Density] Units
p1093
sg705
VPhotometric Data for 2dFGRS S176Z065
p1094
sg707
VNED_PhotometricData
p1095
stp1096
bsg710
S'*'
p1097
sg712
g713
(g21
(S'S15'
p1098
I0
I1
tp1099
Rp1100
(I3
S'|'
p1101
NNNI15
I1
I0
tp1102
bS'2dFGRS S176Z065'
p1103
tp1104
Rp1105
sg722
(lp1106
g713
(g91
S"\x10@j\x13'\xdet@"
p1107
tp1108
Rp1109
ag713
(g91
S'\xd6\x90\xb8\xc7\xd2\x0f<\xc0'
p1110
tp1111
Rp1112
asa(dp1113
g2
F1208.0
sg3
g4
(g5
g6
Ntp1114
Rp1115
(g9
((lp1116
(lp1117
S'No.'
p1118
ag13
(g14
g15
g16
g17
tp1119
Rp1120
(I1
(I1
tp1121
g24
I00
S'\x01\x00\x00\x00'
p1122
g740
g29
(g30
(I0
tp1123
g17
tp1124
Rp1125
(I1
(tg24
I00
S'?B\x0f\x00'
p1126
tp1127
b(g1118
NNVA sequential number of Photometry Measurement for this object, applicable to this list only.
p1128
g9
((lp1129
(lp1130
g39
aVmeta.number;phot.mag
p1131
aatp1132
Rp1133
(lp1134
tp1135
tp1136
baa(lp1137
S'Observed Passband'
p1138
ag13
(g14
g15
g16
g17
tp1139
Rp1140
(I1
(I1
tp1141
g53
I00
(lp1142
S'b_J'
p1143
ag740
g29
(g30
(I0
tp1144
g17
tp1145
Rp1146
(I1
(tg53
I00
(lp1147
g73
atp1148
b(g1138
NNVColloquial descriptions of the frequency or wavelength at which the data were collected, identifying the bandpass by name e.g., "V","1.4GHz", "6 cm", "HI", etc.
p1149
g9
((lp1150
(lp1151
g39
aVinstr.bandpass
p1152
aatp1153
Rp1154
(lp1155
tp1156
tp1157
baa(lp1158
S'Photometry Measurement'
p1159
ag13
(g14
g15
g16
g17
tp1160
Rp1161
(I1
(I1
tp1162
g91
I00
S'R\xb8\x1e\x85\xeb\x110@'
p1163
g740
g29
(g30
(I0
tp1164
g17
tp1165
Rp1166
(I1
(tg91
I00
S'@\x8c\xb5x\x1d\xaf\x15D'
p1167
tp1168
b(g1159
NV{!r:>}
p1169
VThe published photometry or fluxes  for this point.
p1170
g9
((lp1171
(lp1172
g39
aVphot
p1173
aatp1174
Rp1175
(lp1176
tp1177
tp1178
baa(lp1179
S'Uncertainty'
p1180
ag13
(g14
g15
g16
g17
tp1181
Rp1182
(I1
(I1
tp1183
g53
I00
(lp1184
S'+/-0.12'
p1185
ag740
g29
(g30
(I0
tp1186
g17
tp1187
Rp1188
(I1
(tg53
I00
(lp1189
g73
atp1190
b(g1180
NNVThe published uncertainty for photometric data.
p1191
g9
((lp1192
(lp1193
g39
aVstat.error;phot
p1194
aatp1195
Rp1196
(lp1197
tp1198
tp1199
baa(lp1200
S'Units'
p1201
ag13
(g14
g15
g16
g17
tp1202
Rp1203
(I1
(I1
tp1204
g53
I00
(lp1205
S'mag'
p1206
ag740
g29
(g30
(I0
tp1207
g17
tp1208
Rp1209
(I1
(tg53
I00
(lp1210
g73
atp1211
b(g1201
NNVUnits of photometry measurement for this point.
p1212
g9
((lp1213
(lp1214
g39
aVmeta.unit;phot
p1215
aatp1216
Rp1217
(lp1218
tp1219
tp1220
baa(lp1221
S'Frequency'
p1222
ag13
(g14
g15
g16
g17
tp1223
Rp1224
(I1
(I1
tp1225
g91
I00
S'\x00\x80h\x8a\xe37\x02C'
p1226
g740
g29
(g30
(I0
tp1227
g17
tp1228
Rp1229
(I1
(tg91
I00
S'@\x8c\xb5x\x1d\xaf\x15D'
p1230
tp1231
b(g1222
g186
V{!r:>}
p1232
VThe frequency, wavelength, or photometric passband, in absolute units as calculated by NED
p1233
g9
((lp1234
(lp1235
g39
aVem.freq
p1236
aatp1237
Rp1238
(lp1239
tp1240
tp1241
baa(lp1242
S'NED Photometry Measurement'
p1243
ag13
(g14
g15
g16
g17
tp1244
Rp1245
(I1
(I1
tp1246
g91
I00
S'\x84*5{\xa0\x15X?'
p1247
g740
g29
(g30
(I0
tp1248
g17
tp1249
Rp1250
(I1
(tg91
I00
S'@\x8c\xb5x\x1d\xaf\x15D'
p1251
tp1252
b(g1243
g260
V{!r:>}
p1253
VFlux/Photometric data for this point as transformed and stored by NED.
p1254
g9
((lp1255
(lp1256
g39
aVphot
p1257
aatp1258
Rp1259
(lp1260
tp1261
tp1262
baa(lp1263
S'NED Uncertainty'
p1264
ag13
(g14
g15
g16
g17
tp1265
Rp1266
(I1
(I1
tp1267
g53
I00
(lp1268
S'+/-1.72E-04'
p1269
ag740
g29
(g30
(I0
tp1270
g17
tp1271
Rp1272
(I1
(tg53
I00
(lp1273
g73
atp1274
b(g1264
NNVPhotometric/Flux uncertainty as transformed and stored by NED.
p1275
g9
((lp1276
(lp1277
g39
aVstat.error;phot
p1278
aatp1279
Rp1280
(lp1281
tp1282
tp1283
baa(lp1284
S'NED Units'
p1285
ag13
(g14
g15
g16
g17
tp1286
Rp1287
(I1
(I1
tp1288
g53
I00
(lp1289
S'Jy'
p1290
ag740
g29
(g30
(I0
tp1291
g17
tp1292
Rp1293
(I1
(tg53
I00
(lp1294
g73
atp1295
b(g1285
NNVAbsolute units of photometry measurement for this point.
p1296
g9
((lp1297
(lp1298
g39
aVmeta.unit;phot
p1299
aatp1300
Rp1301
(lp1302
tp1303
tp1304
baa(lp1305
S'Refcode'
p1306
ag13
(g14
g15
g16
g17
tp1307
Rp1308
(I1
(I1
tp1309
g53
I00
(lp1310
S'1990MNRAS.243..692M'
p1311
ag740
g29
(g30
(I0
tp1312
g17
tp1313
Rp1314
(I1
(tg53
I00
(lp1315
g73
atp1316
b(g1306
NNVThe NED 19-digit Bibliographic Reference code.
p1317
g9
((lp1318
(lp1319
g39
aVmeta.bib.bibcode
p1320
aatp1321
Rp1322
(lp1323
tp1324
tp1325
baa(lp1326
S'Significance'
p1327
ag13
(g14
g15
g16
g17
tp1328
Rp1329
(I1
(I1
tp1330
g53
I00
(lp1331
S'rms uncertainty'
p1332
ag740
g29
(g30
(I0
tp1333
g17
tp1334
Rp1335
(I1
(tg53
I00
(lp1336
g73
atp1337
b(g1327
NNVType of uncertainty reported in the original publication
p1338
g9
((lp1339
(lp1340
g39
aVmeta.code.error
p1341
aatp1342
Rp1343
(lp1344
tp1345
tp1346
baa(lp1347
S'Published frequency'
p1348
ag13
(g14
g15
g16
g17
tp1349
Rp1350
(I1
(I1
tp1351
g53
I00
(lp1352
S'4680      A'
p1353
ag740
g29
(g30
(I0
tp1354
g17
tp1355
Rp1356
(I1
(tg53
I00
(lp1357
g73
atp1358
b(g1348
NNVWavelength or frequency  of observation as given in the original publication
p1359
g9
((lp1360
(lp1361
g39
aVmeta.ref;em.freq
p1362
aatp1363
Rp1364
(lp1365
tp1366
tp1367
baa(lp1368
S'Frequency Mode'
p1369
ag13
(g14
g15
g16
g17
tp1370
Rp1371
(I1
(I1
tp1372
g53
I00
(lp1373
S'Broad-band measurement'
p1374
ag740
g29
(g30
(I0
tp1375
g17
tp1376
Rp1377
(I1
(tg53
I00
(lp1378
g73
atp1379
b(g1369
NNVThe method(s) by which the data were collected, reduced, or derived, regarding the frequency or wavelength;
p1380
g9
((lp1381
(lp1382
g39
aVmeta.ref;em.freq;instr.setup
p1383
aatp1384
Rp1385
(lp1386
tp1387
tp1388
baa(lp1389
S'Coordinates Targeted'
p1390
ag13
(g14
g15
g16
g17
tp1391
Rp1392
(I1
(I1
tp1393
g53
I00
(lp1394
S'221544.86 -462806.5 (B1950)'
p1395
ag740
g29
(g30
(I0
tp1396
g17
tp1397
Rp1398
(I1
(tg53
I00
(lp1399
g73
atp1400
b(g1390
NNVThe position at which the measurements were taken, followed by the coordinate reference frame (e.g.,  013350.90 +303935.8 (J2000) in format HHMMSS.ss +DDMMSS.s (EQUINOX),  etc.).
p1401
g9
((lp1402
(lp1403
g39
aVpos
p1404
aatp1405
Rp1406
(lp1407
tp1408
tp1409
baa(lp1410
S'Spatial Mode'
p1411
ag13
(g14
g15
g16
g17
tp1412
Rp1413
(I1
(I1
tp1414
g53
I00
(lp1415
S'Flux integrated from map'
p1416
ag740
g29
(g30
(I0
tp1417
g17
tp1418
Rp1419
(I1
(tg53
I00
(lp1420
g73
atp1421
b(g1411
NNVThe method(s) by which the data were collected, reduced, or derived, regarding the spatially integrated flux
p1422
g9
((lp1423
(lp1424
g39
aVphot.flux;instr.setup
p1425
aatp1426
Rp1427
(lp1428
tp1429
tp1430
baa(lp1431
S'Qualifiers'
p1432
ag13
(g14
g15
g16
g17
tp1433
Rp1434
(I1
(I1
tp1435
g53
I00
(lp1436
g121
ag740
g29
(g30
(I0
tp1437
g17
tp1438
Rp1439
(I1
(tg53
I00
(lp1440
g73
atp1441
b(g1432
NNVSelf-explanatory notes pertaining to the history of the data or adjustments to the data or hanges introduced by NED
p1442
g9
((lp1443
(lp1444
g39
aVmeta.note;instr.setup
p1445
aatp1446
Rp1447
(lp1448
tp1449
tp1450
baa(lp1451
S'Comments'
p1452
ag13
(g14
g15
g16
g17
tp1453
Rp1454
(I1
(I1
tp1455
g53
I00
(lp1456
S'From new raw data'
p1457
ag740
g29
(g30
(I0
tp1458
g17
tp1459
Rp1460
(I1
(tg53
I00
(lp1461
g73
atp1462
b(g1452
NNVOther information from the published source or from NED that may be helpful in interpreting or qualifying the data.
p1463
g9
((lp1464
(lp1465
g39
aVmeta.note;comment
p1466
aatp1467
Rp1468
(lp1469
tp1470
tp1471
baatp1472
Rp1473
(dp1474
g703
VPublished and Homogenized [Frequency, Flux Density] Units
p1475
sg705
VPhotometric Data for 6dF J2218489-461303
p1476
sg707
VNED_PhotometricData
p1477
stp1478
bsg710
g711
sg712
g713
(g21
(S'S19'
p1479
I0
I1
tp1480
Rp1481
(I3
S'|'
p1482
NNNI19
I1
I0
tp1483
bS'6dF J2218489-461303'
p1484
tp1485
Rp1486
sg722
(lp1487
g713
(g91
S'\xb4\x1f)"C\xebt@'
p1488
tp1489
Rp1490
ag713
(g91
S'\x0e\xf3\xe5\x05\xd8\x1bG\xc0'
p1491
tp1492
Rp1493
asa(dp1494
g2
F915.0
sg3
g4
(g5
g6
Ntp1495
Rp1496
(g9
((lp1497
(lp1498
S'No.'
p1499
ag13
(g14
g15
g16
g17
tp1500
Rp1501
(I1
(I64
tp1502
g24
I00
S'\x01\x00\x00\x00\x02\x00\x00\x00\x03\x00\x00\x00\x04\x00\x00\x00\x05\x00\x00\x00\x06\x00\x00\x00\x07\x00\x00\x00\x08\x00\x00\x00\t\x00\x00\x00\n\x00\x00\x00\x0b\x00\x00\x00\x0c\x00\x00\x00\r\x00\x00\x00\x0e\x00\x00\x00\x0f\x00\x00\x00\x10\x00\x00\x00\x11\x00\x00\x00\x12\x00\x00\x00\x13\x00\x00\x00\x14\x00\x00\x00\x15\x00\x00\x00\x16\x00\x00\x00\x17\x00\x00\x00\x18\x00\x00\x00\x19\x00\x00\x00\x1a\x00\x00\x00\x1b\x00\x00\x00\x1c\x00\x00\x00\x1d\x00\x00\x00\x1e\x00\x00\x00\x1f\x00\x00\x00 \x00\x00\x00!\x00\x00\x00"\x00\x00\x00#\x00\x00\x00$\x00\x00\x00%\x00\x00\x00&\x00\x00\x00\'\x00\x00\x00(\x00\x00\x00)\x00\x00\x00*\x00\x00\x00+\x00\x00\x00,\x00\x00\x00-\x00\x00\x00.\x00\x00\x00/\x00\x00\x000\x00\x00\x001\x00\x00\x002\x00\x00\x003\x00\x00\x004\x00\x00\x005\x00\x00\x006\x00\x00\x007\x00\x00\x008\x00\x00\x009\x00\x00\x00:\x00\x00\x00;\x00\x00\x00<\x00\x00\x00=\x00\x00\x00>\x00\x00\x00?\x00\x00\x00@\x00\x00\x00'
p1503
S'\x00\x00\x00\x00\x00\x00\x00\x00\x00\x00\x00\x00\x00\x00\x00\x00\x00\x00\x00\x00\x00\x00\x00\x00\x00\x00\x00\x00\x00\x00\x00\x00\x00\x00\x00\x00\x00\x00\x00\x00\x00\x00\x00\x00\x00\x00\x00\x00\x00\x00\x00\x00\x00\x00\x00\x00\x00\x00\x00\x00\x00\x00\x00\x00'
p1504
g29
(g30
(I0
tp1505
g17
tp1506
Rp1507
(I1
(tg24
I00
S'?B\x0f\x00'
p1508
tp1509
b(g1499
NNVA sequential number of Photometry Measurement for this object, applicable to this list only.
p1510
g9
((lp1511
(lp1512
g39
aVmeta.number;phot.mag
p1513
aatp1514
Rp1515
(lp1516
tp1517
tp1518
baa(lp1519
S'Observed Passband'
p1520
ag13
(g14
g15
g16
g17
tp1521
Rp1522
(I1
(I64
tp1523
g53
I00
(lp1524
S'B (B_T)'
p1525
aS'B (m_B)'
p1526
aS'B (B_T^0)'
p1527
aS'B (Cousins) (B_T)'
p1528
aS'B (Cousins) (B_25)'
p1529
aS'B (Cousins) (B_26)'
p1530
aS'b_J'
p1531
aS'B_J'
p1532
aS'V (Johnson)'
p1533
aS'V (Johnson)'
p1534
aS'V (Johnson)'
p1535
aS'V (Johnson)'
p1536
aS'R (Cousins) (R_T)'
p1537
aS'R (Cousins) (R_25)'
p1538
aS'R (Cousins) (R_26)'
p1539
ag65
aS'H{alpha} (CTIO)'
p1540
aS"R' (Johnson)"
p1541
aS"R' (Johnson)"
p1542
aS"R' (Johnson)"
p1543
aS"R' (Johnson)"
p1544
aS'I_t_ (Kron-Cousins)'
p1545
ag66
ag66
ag66
aS"I' (Johnson)"
p1546
aS"I' (Johnson)"
p1547
aS"I' (Johnson)"
p1548
aS"I' (Johnson)"
p1549
aS'J (2MASS/CTIO)'
p1550
aS'J (2MASS/CTIO)'
p1551
aS'J (2MASS/CTIO)'
p1552
aS'J_20 (2MASS LGA)'
p1553
aS'J_Kron (2MASS LGA)'
p1554
aS'J_tot (2MASS LGA)'
p1555
aS'J_14arcsec (2MASS)'
p1556
aS'H_20 (2MASS LGA)'
p1557
aS'H_Kron (2MASS LGA)'
p1558
aS'H_tot (2MASS LGA)'
p1559
aS'H_14arcsec (2MASS)'
p1560
aS'H (2MASS/CTIO)'
p1561
aS'H (2MASS/CTIO)'
p1562
aS'H (2MASS/CTIO)'
p1563
aS'K_s (2MASS/CTIO)'
p1564
aS'K_s (2MASS/CTIO)'
p1565
aS'K_s_14arcsec (2MASS)'
p1566
aS'K_Kron (2MASS LGA)'
p1567
aS'K_20 (2MASS LGA)'
p1568
aS'K_tot (2MASS LGA)'
p1569
aS'12 microns (IRAS)'
p1570
aS'12 microns (IRAS)'
p1571
aS'25 microns (IRAS)'
p1572
aS'25 microns (IRAS)'
p1573
aS'60 microns (IRAS)'
p1574
aS'60 microns (IRAS)'
p1575
aS'FIR (IRAS)'
p1576
aS'100 microns (IRAS)'
p1577
aS'100 microns (IRAS)'
p1578
aS'HI (21 cm line)'
p1579
aS'HI 21cm line Parkes'
p1580
aS'HI line (Parkes)'
p1581
aS'HI (21 cm line)'
p1582
aS'HI (21 cm line)'
p1583
aS'HI (21 cm line)'
p1584
aS'\x00\x00\x00\x00\x00\x00\x00\x00\x00\x00\x00\x00\x00\x00\x00\x00\x00\x00\x00\x00\x00\x00\x00\x00\x00\x00\x00\x00\x00\x00\x00\x00\x00\x00\x00\x00\x00\x00\x00\x00\x00\x00\x00\x00\x00\x00\x00\x00\x00\x00\x00\x00\x00\x00\x00\x00\x00\x00\x00\x00\x00\x00\x00\x00'
p1585
g29
(g30
(I0
tp1586
g17
tp1587
Rp1588
(I1
(tg53
I00
(lp1589
g73
atp1590
b(g1520
NNVColloquial descriptions of the frequency or wavelength at which the data were collected, identifying the bandpass by name e.g., "V","1.4GHz", "6 cm", "HI", etc.
p1591
g9
((lp1592
(lp1593
g39
aVinstr.bandpass
p1594
aatp1595
Rp1596
(lp1597
tp1598
tp1599
baa(lp1600
S'Photometry Measurement'
p1601
ag13
(g14
g15
g16
g17
tp1602
Rp1603
(I1
(I64
tp1604
g91
I00
S'\x9a\x99\x99\x99\x99\x99&@=\n\xd7\xa3p=\'@\x00\x00\x00\x00\x00\x00&@\x8f\xc2\xf5(\\\x0f\'@{\x14\xaeG\xe1z\'@\xc3\xf5(\\\x8fB\'@\xecQ\xb8\x1e\x85k,@\x9aw\x9c\xa2#9&@R\xb8\x1e\x85\xebQ&@=\n\xd7\xa3p=(@\x85\xebQ\xb8\x1e\x85(@fffff\xe6&@\xecQ\xb8\x1e\x85k%@33333\xb3%@\xf6(\\\x8f\xc2u%@S\x05\xa3\x92:a\'@\xc3\xf5(\\\x8fB\'\xc0\xa4p=\n\xd7\xa3\'@\\\x8f\xc2\xf5(\\\'@\xd7\xa3p=\nW%@\xaeG\xe1z\x14.&@\xf6(\\\x8f\xc2\xf5%@\x92\\\xfeC\xfam\'@\xe1z\x14\xaeGa%@R\xb8\x1e\x85\xeb\xd1%@\xe1z\x14\xaeG\xe1$@\xc3\xf5(\\\x8fB&@\x85\xebQ\xb8\x1e\x85#@\xb8\x1e\x85\xebQ\xb8%@D\x8bl\xe7\xfbI0@\x00\x00\x00\x00\x00\x00\xf8\x7f\xe3\xa5\x9b\xc4 0.@Zd;\xdfO\r\'@\xf8S\xe3\xa5\x9b\x84%@\xf2\xd2Mb\x10\x18&@\xe5\xd0"\xdb\xf9~+@m\xe7\xfb\xa9\xf1\xd2%@\xc7K7\x89A`$@h\x91\xed|?\xf5$@?5^\xbaIL*@\x9c\xc4 \xb0r\xe8,@\x00\x00\x00\x00\x00\x00\xf8\x7f\x0c\x02+\x87\x16\x99/@\x00\x00\x00\x00\x00\x00\xf8\x7f\x00\x00\x00\x00\x00\x00\xf8\x7fJ\x0c\x02+\x87\xd6)@\xd3Mb\x10X\xb9#@\xe7\xfb\xa9\xf1\xd2M%@J\x0c\x02+\x87V$@333333\xc3?\x00\x00\x00\x00\x00\x00\xf8\x7f\x00\x00\x00\x00\x00\x00\xf8\x7f\x00\x00\x00\x00\x00\x00\xf8\x7fxz\xa5,C\x1c\xe9?\xb8\x1e\x85\xebQ\xb8\xf6?; \xd8\xcd\xdc\xbd8={\x14\xaeG\xe1z\n@\x9c\xc4 \xb0rh\t@\xecQ\xb8\x1e\x85\xeb\'@\x00\x00\x00\x00\x00\xb0d@fffff\x06e@\x1f\x85\xebQ\xb8Vf@\xcd\xcc\xcc\xcc\xcc\xbcd@\xcd\xcc\xcc\xcc\xcc\xacc@'
p1605
S'\x00\x00\x00\x00\x00\x00\x00\x00\x00\x00\x00\x00\x00\x00\x00\x00\x00\x00\x00\x00\x00\x00\x00\x00\x00\x00\x00\x00\x00\x00\x01\x00\x00\x00\x00\x00\x00\x00\x00\x00\x00\x01\x00\x01\x01\x00\x00\x00\x00\x00\x01\x01\x01\x00\x00\x00\x00\x00\x00\x00\x00\x00\x00\x00'
p1606
g29
(g30
(I0
tp1607
g17
tp1608
Rp1609
(I1
(tg91
I00
S'@\x8c\xb5x\x1d\xaf\x15D'
p1610
tp1611
b(g1601
NV{!r:>}
p1612
VThe published photometry or fluxes  for this point.
p1613
g9
((lp1614
(lp1615
g39
aVphot
p1616
aatp1617
Rp1618
(lp1619
tp1620
tp1621
baa(lp1622
S'Uncertainty'
p1623
ag13
(g14
g15
g16
g17
tp1624
Rp1625
(I1
(I64
tp1626
g53
I00
(lp1627
S'+/-0.20'
p1628
aS'+/-0.16'
p1629
ag121
aS'+/-0.09'
p1630
aS'+/-0.09'
p1631
aS'+/-0.09'
p1632
aS'+/-0.12'
p1633
ag121
ag121
ag121
ag121
ag121
aS'+/-0.09'
p1634
aS'+/-0.09'
p1635
aS'+/-0.09'
p1636
ag121
aS'+/-0.07'
p1637
ag121
ag121
ag121
ag121
aS'+/-5   %'
p1638
ag121
ag121
aS'+/-0.06'
p1639
ag121
ag121
ag121
ag121
aS'+/-0.224'
p1640
aS'>15.146'
p1641
aS'+/-0.06'
p1642
aS'+/-0.033'
p1643
aS'+/-0.040'
p1644
aS'+/-0.037'
p1645
aS'+/-0.049'
p1646
aS'+/-0.045'
p1647
aS'+/-0.058'
p1648
aS'+/-0.053'
p1649
aS'+/-0.069'
p1650
aS'+/-0.081'
p1651
aS'>14.34'
p1652
aS'+/-0.314'
p1653
aS'>14.161'
p1654
aS'>14.117'
p1655
aS'+/-0.090'
p1656
aS'+/-0.069'
p1657
aS'+/-0.056'
p1658
aS'+/-0.063'
p1659
aS'+/-25  %'
p1660
aS'<8.574E-02'
p1661
aS'<0.10'
p1662
aS'<6.206E-02'
p1663
aS'+/-7   %'
p1664
aS'+/-25  %'
p1665
ag121
aS'+/-25  %'
p1666
aS'+/-7   %'
p1667
aS'+/-0.20'
p1668
aS'+/-12.0'
p1669
ag121
ag121
ag121
aS'+/-0.94'
p1670
aS'\x00\x00\x00\x00\x00\x00\x00\x00\x00\x00\x00\x00\x00\x00\x00\x00\x00\x00\x00\x00\x00\x00\x00\x00\x00\x00\x00\x00\x00\x00\x00\x00\x00\x00\x00\x00\x00\x00\x00\x00\x00\x00\x00\x00\x00\x00\x00\x00\x00\x00\x00\x00\x00\x00\x00\x00\x00\x00\x00\x00\x00\x00\x00\x00'
p1671
g29
(g30
(I0
tp1672
g17
tp1673
Rp1674
(I1
(tg53
I00
(lp1675
g73
atp1676
b(g1623
NNVThe published uncertainty for photometric data.
p1677
g9
((lp1678
(lp1679
g39
aVstat.error;phot
p1680
aatp1681
Rp1682
(lp1683
tp1684
tp1685
baa(lp1686
S'Units'
p1687
ag13
(g14
g15
g16
g17
tp1688
Rp1689
(I1
(I64
tp1690
g53
I00
(lp1691
S'mag'
p1692
aS'mag'
p1693
aS'mag'
p1694
aS'mag'
p1695
aS'mag'
p1696
aS'mag'
p1697
aS'mag'
p1698
aS'mag'
p1699
aS'mag'
p1700
aS'mag'
p1701
aS'mag'
p1702
aS'mag'
p1703
aS'mag'
p1704
aS'mag'
p1705
aS'mag'
p1706
aS'mag'
p1707
aS'log(erg/cm^2^/s)'
p1708
aS'mag'
p1709
aS'mag'
p1710
aS'mag'
p1711
aS'mag'
p1712
aS'mag'
p1713
aS'mag'
p1714
aS'mag'
p1715
aS'mag'
p1716
aS'mag'
p1717
aS'mag'
p1718
aS'mag'
p1719
aS'mag'
p1720
aS'mag'
p1721
aS'mag'
p1722
aS'mag'
p1723
aS'mag'
p1724
aS'mag'
p1725
aS'mag'
p1726
aS'mag'
p1727
aS'mag'
p1728
aS'mag'
p1729
aS'mag'
p1730
aS'mag'
p1731
aS'mag'
p1732
aS'mag'
p1733
aS'mag'
p1734
aS'mag'
p1735
aS'mag'
p1736
aS'mag'
p1737
aS'mag'
p1738
aS'mag'
p1739
aS'mag'
p1740
aS'Jy'
p1741
aS'Jy'
p1742
aS'Jy'
p1743
aS'Jy'
p1744
aS'Jy'
p1745
aS'Jy'
p1746
aS'W m^-2^'
p1747
aS'Jy'
p1748
aS'Jy'
p1749
aS'm_21 mag'
p1750
aS'Jy km/s'
p1751
aS'Jy km s^-1^'
p1752
aS'Jy km s^-1^'
p1753
aS'Jy km s^-1^'
p1754
aS'Jy km s^-1^'
p1755
aS'\x00\x00\x00\x00\x00\x00\x00\x00\x00\x00\x00\x00\x00\x00\x00\x00\x00\x00\x00\x00\x00\x00\x00\x00\x00\x00\x00\x00\x00\x00\x00\x00\x00\x00\x00\x00\x00\x00\x00\x00\x00\x00\x00\x00\x00\x00\x00\x00\x00\x00\x00\x00\x00\x00\x00\x00\x00\x00\x00\x00\x00\x00\x00\x00'
p1756
g29
(g30
(I0
tp1757
g17
tp1758
Rp1759
(I1
(tg53
I00
(lp1760
g73
atp1761
b(g1687
NNVUnits of photometry measurement for this point.
p1762
g9
((lp1763
(lp1764
g39
aVmeta.unit;phot
p1765
aatp1766
Rp1767
(lp1768
tp1769
tp1770
baa(lp1771
S'Frequency'
p1772
ag13
(g14
g15
g16
g17
tp1773
Rp1774
(I1
(I64
tp1775
g91
I00
S'\x00\x80\xbcX\xedZ\x03C\x00\x80\xbcX\xedZ\x03C\x00\x80\xbcX\xedZ\x03C\x00\x80\xbcX\xedZ\x03C\x00\x80\xbcX\xedZ\x03C\x00\x80\xbcX\xedZ\x03C\x00\x80h\x8a\xe37\x02C\x00\x80h\x8a\xe37\x02C\x00\x00~W#\xcf\xfeB\x00\x00~W#\xcf\xfeB\x00\x00~W#\xcf\xfeB\x00\x00~W#\xcf\xfeB\x00\x00\x14\xdcK\x9a\xfaB\x00\x00\x14\xdcK\x9a\xfaB\x00\x00\x14\xdcK\x9a\xfaB\x00\x00\x14\xdcK\x9a\xfaB\x00\x00\x99\xaa9\xfa\xf9B\x00\x00\xc0\rBw\xf9B\x00\x00\xc0\rBw\xf9B\x00\x00\xc0\rBw\xf9B\x00\x00\xc0\rBw\xf9B\x00\x00<P\xba\x99\xf5B\x00\x00\xeb\x05-\x8b\xf5B\x00\x00\xeb\x05-\x8b\xf5B\x00\x00\xeb\x05-\x8b\xf5B\x00\x00\xa7\xdc\xf7P\xf5B\x00\x00\xa7\xdc\xf7P\xf5B\x00\x00\xa7\xdc\xf7P\xf5B\x00\x00\xa7\xdc\xf7P\xf5B\x00\x00\xc6\x15;\xa0\xebB\x00\x00\xc6\x15;\xa0\xebB\x00\x00\xc6\x15;\xa0\xebB\x00\x00\xe0W\xebH\xebB\x00\x00\xe0W\xebH\xebB\x00\x00\xe0W\xebH\xebB\x00\x00\xe0W\xebH\xebB\x00\x00,\xab\xe5\xb0\xe4B\x00\x00,\xab\xe5\xb0\xe4B\x00\x00,\xab\xe5\xb0\xe4B\x00\x00,\xab\xe5\xb0\xe4B\x00\x00\xe8\x81\xb0v\xe4B\x00\x00\xe8\x81\xb0v\xe4B\x00\x00\xe8\x81\xb0v\xe4B\x00\x00\xecg\xdd\x9a\xdfB\x00\x00\xecg\xdd\x9a\xdfB\x00\x00\xa8>\xa8`\xdfB\x00\x00\xa8>\xa8`\xdfB\x00\x00\xa8>\xa8`\xdfB\x00\x00\xa8>\xa8`\xdfB\x00\x00\x90\x1e\xc4\xbc\xb6B\x00\x00\x90\x1e\xc4\xbc\xb6B\x00\x00\x80y\xef\xd3\xa5B\x00\x00\x80y\xef\xd3\xa5B\x00\x00@\xe5\x9c0\x92B\x00\x00@\xe5\x9c0\x92B\x00\x00`\xe2fi\x8aB\x00\x00\x80y\xef\xd3\x85B\x00\x00\x80y\xef\xd3\x85B\x00\x00\x00\xc0\xde(\xd5A\x00\x00\x00\xc0\xde(\xd5A\x00\x00\x00\xc0\xde(\xd5A\x00\x00\x00\xc0\xde(\xd5A\x00\x00\x00\xc0\xde(\xd5A\x00\x00\x00\xc0\xde(\xd5A'
p1776
S'\x00\x00\x00\x00\x00\x00\x00\x00\x00\x00\x00\x00\x00\x00\x00\x00\x00\x00\x00\x00\x00\x00\x00\x00\x00\x00\x00\x00\x00\x00\x00\x00\x00\x00\x00\x00\x00\x00\x00\x00\x00\x00\x00\x00\x00\x00\x00\x00\x00\x00\x00\x00\x00\x00\x00\x00\x00\x00\x00\x00\x00\x00\x00\x00'
p1777
g29
(g30
(I0
tp1778
g17
tp1779
Rp1780
(I1
(tg91
I00
S'@\x8c\xb5x\x1d\xaf\x15D'
p1781
tp1782
b(g1772
g186
V{!r:>}
p1783
VThe frequency, wavelength, or photometric passband, in absolute units as calculated by NED
p1784
g9
((lp1785
(lp1786
g39
aVem.freq
p1787
aatp1788
Rp1789
(lp1790
tp1791
tp1792
baa(lp1793
S'NED Photometry Measurement'
p1794
ag13
(g14
g15
g16
g17
tp1795
Rp1796
(I1
(I64
tp1797
g91
I00
S'P\x8d\x97n\x12\x83\xc0?\xd8\xf0\xf4JY\x86\xb8?\xc3\xf5(\\\x8f\xc2\xc5?9\xb4\xc8v\xbe\x9f\xba?\'\xa0\x89\xb0\xe1\xe9\xb5?tF\x94\xf6\x06_\xb8?T\xa9\xd9\x03\xad\xc0\x80?\x93\x18\x04V\x0e-\xc2?\x00\x00\x00\x00\x00\x00\xc0?\xd5\th"lx\xaa?\x91\x0fz6\xab>\xa7?\xc7):\x92\xcb\x7f\xb8?{\x14\xaeG\xe1z\xc4?\xecQ\xb8\x1e\x85\xeb\xc1?\x7fj\xbct\x93\x18\xc4?\xa4p=\n\xd7\xa3\xb0?\x00\x00\x00R\xbe=KB9\xb4\xc8v\xbe\x9f\xaa?\xac\xad\xd8_vO\xae?333333\xc3?\xe9&1\x08\xac\x1c\xba?Nb\x10X9\xb4\xb8?\x03\t\x8a\x1fc\xee\xaa?H\xe1z\x14\xaeG\xc1?)\\\x8f\xc2\xf5(\xbc?\xdfO\x8d\x97n\x12\xc3?\xe4\x14\x1d\xc9\xe5?\xb4?B`\xe5\xd0"\xdb\xd1?B`\xe5\xd0"\xdb\xb9?\xfa`\x19\x1b\xba\xd9??\x00\x00\x00\x00\x00\x00\xf8\x7f\xb2c#\x10\xaf\xebW?+\x87\x16\xd9\xce\xf7\xa3?\xe4\x14\x1d\xc9\xe5?\xb4?\xa3\x01\xbc\x05\x12\x14\xaf?M\xdb\xbf\xb2\xd2\xa4t?\xfee\xf7\xe4a\xa1\xa6?{\x83/L\xa6\n\xb6?;p\xce\x88\xd2\xde\xb0?\xe4\x0f\x06\x9e{\x0fw?\x8e@\xbc\xae_\xb0[?\x00\x00\x00\x00\x00\x00\xf8\x7fOw\x9ex\xce\x16@?\x00\x00\x00\x00\x00\x00\xf8\x7f\x00\x00\x00\x00\x00\x00\xf8\x7fY4\x9d\x9d\x0c\x8er?\xa9\xa4N@\x13a\xb3?\x054\x116<\xbd\xa2?\xea\x044\x116<\xad?333333\xc3?\x00\x00\x00\x00\x00\x00\xf8\x7f\x00\x00\x00\x00\x00\x00\xf8\x7f\x00\x00\x00\x00\x00\x00\xf8\x7f\x1f\x85\xebQ\xb8\x1e\xe9?\xb8\x1e\x85\xebQ\xb8\xf6?\\\x8f\xc2\xf5(\\\x03@{\x14\xaeG\xe1z\n@q=\n\xd7\xa3p\t@\x00\x00\x00\x00`\xe9%A\x00\x00\x00\x00\xf0\xc5\'A\x00\x00\x00\x00 ;(A\x00\x00\x00\x00\xc0\xc1)A\x00\x00\x00\x00\x90\xd5\'A\x00\x00\x00\x00\x10\x9d&A'
p1798
S'\x00\x00\x00\x00\x00\x00\x00\x00\x00\x00\x00\x00\x00\x00\x00\x00\x00\x00\x00\x00\x00\x00\x00\x00\x00\x00\x00\x00\x00\x00\x01\x00\x00\x00\x00\x00\x00\x00\x00\x00\x00\x01\x00\x01\x01\x00\x00\x00\x00\x00\x01\x01\x01\x00\x00\x00\x00\x00\x00\x00\x00\x00\x00\x00'
p1799
g29
(g30
(I0
tp1800
g17
tp1801
Rp1802
(I1
(tg91
I00
S'@\x8c\xb5x\x1d\xaf\x15D'
p1803
tp1804
b(g1794
g260
V{!r:>}
p1805
VFlux/Photometric data for this point as transformed and stored by NED.
p1806
g9
((lp1807
(lp1808
g39
aVphot
p1809
aatp1810
Rp1811
(lp1812
tp1813
tp1814
baa(lp1815
S'NED Uncertainty'
p1816
ag13
(g14
g15
g16
g17
tp1817
Rp1818
(I1
(I64
tp1819
g53
I00
(lp1820
S'+/-2.60E-02'
p1821
aS'+/-1.52E-02'
p1822
ag121
aS'+/-8.97E-03'
p1823
aS'+/-7.40E-03'
p1824
aS'+/-8.22E-03'
p1825
aS'+/-9.56E-04'
p1826
ag121
ag121
ag121
ag121
ag121
aS'+/-1.38E-02'
p1827
aS'+/-1.21E-02'
p1828
aS'+/-1.36E-02'
p1829
ag121
aS'+/-3.78E+10'
p1830
ag121
ag121
ag121
ag121
aS'+/-4.83E-03'
p1831
ag121
ag121
aS'+/-6.10E-03'
p1832
ag121
ag121
ag121
ag121
aS'+/-1.00E-04'
p1833
aS'1.39E-03'
p1834
aS'+/-8.08E-05'
p1835
aS'+/-1.20E-03'
p1836
aS'+/-2.97E-03'
p1837
aS'+/-2.10E-03'
p1838
aS'+/-2.33E-04'
p1839
aS'+/-1.87E-03'
p1840
aS'+/-4.73E-03'
p1841
aS'+/-3.30E-03'
p1842
aS'+/-3.70E-04'
p1843
aS'+/-1.26E-04'
p1844
aS'1.88E-03'
p1845
aS'+/-1.42E-04'
p1846
aS'1.44E-03'
p1847
aS'1.50E-03'
p1848
aS'+/-3.92E-04'
p1849
aS'+/-4.97E-03'
p1850
aS'+/-1.94E-03'
p1851
aS'+/-3.41E-03'
p1852
aS'+/-3.75E-02'
p1853
aS'8.57E-02'
p1854
aS'1.00E-01'
p1855
aS'6.21E-02'
p1856
aS'+/-5.49E-02'
p1857
aS'+/-3.55E-01'
p1858
ag121
aS'+/-8.28E-01'
p1859
aS'+/-2.22E-01'
p1860
aS'+/-1.45E+05'
p1861
aS'+/-5.65E+04'
p1862
ag121
ag121
ag121
aS'+/-4.42E+03'
p1863
aS'\x00\x00\x00\x00\x00\x00\x00\x00\x00\x00\x00\x00\x00\x00\x00\x00\x00\x00\x00\x00\x00\x00\x00\x00\x00\x00\x00\x00\x00\x00\x00\x00\x00\x00\x00\x00\x00\x00\x00\x00\x00\x00\x00\x00\x00\x00\x00\x00\x00\x00\x00\x00\x00\x00\x00\x00\x00\x00\x00\x00\x00\x00\x00\x00'
p1864
g29
(g30
(I0
tp1865
g17
tp1866
Rp1867
(I1
(tg53
I00
(lp1868
g73
atp1869
b(g1816
NNVPhotometric/Flux uncertainty as transformed and stored by NED.
p1870
g9
((lp1871
(lp1872
g39
aVstat.error;phot
p1873
aatp1874
Rp1875
(lp1876
tp1877
tp1878
baa(lp1879
S'NED Units'
p1880
ag13
(g14
g15
g16
g17
tp1881
Rp1882
(I1
(I64
tp1883
g53
I00
(lp1884
S'Jy'
p1885
aS'Jy'
p1886
aS'Jy'
p1887
aS'Jy'
p1888
aS'Jy'
p1889
aS'Jy'
p1890
aS'Jy'
p1891
aS'Jy'
p1892
aS'Jy'
p1893
aS'Jy'
p1894
aS'Jy'
p1895
aS'Jy'
p1896
aS'Jy'
p1897
aS'Jy'
p1898
aS'Jy'
p1899
aS'Jy'
p1900
aS'Jy-Hz'
p1901
aS'Jy'
p1902
aS'Jy'
p1903
aS'Jy'
p1904
aS'Jy'
p1905
aS'Jy'
p1906
aS'Jy'
p1907
aS'Jy'
p1908
aS'Jy'
p1909
aS'Jy'
p1910
aS'Jy'
p1911
aS'Jy'
p1912
aS'Jy'
p1913
aS'Jy'
p1914
aS'Jy'
p1915
aS'Jy'
p1916
aS'Jy'
p1917
aS'Jy'
p1918
aS'Jy'
p1919
aS'Jy'
p1920
aS'Jy'
p1921
aS'Jy'
p1922
aS'Jy'
p1923
aS'Jy'
p1924
aS'Jy'
p1925
aS'Jy'
p1926
aS'Jy'
p1927
aS'Jy'
p1928
aS'Jy'
p1929
aS'Jy'
p1930
aS'Jy'
p1931
aS'Jy'
p1932
aS'Jy'
p1933
aS'Jy'
p1934
aS'Jy'
p1935
aS'Jy'
p1936
aS'Jy'
p1937
aS'Jy'
p1938
aS'Jy'
p1939
aS'Jy'
p1940
aS'Jy'
p1941
aS'Jy'
p1942
aS'Jy-Hz'
p1943
aS'Jy-Hz'
p1944
aS'Jy-Hz'
p1945
aS'Jy-Hz'
p1946
aS'Jy-Hz'
p1947
aS'Jy-Hz'
p1948
aS'\x00\x00\x00\x00\x00\x00\x00\x00\x00\x00\x00\x00\x00\x00\x00\x00\x00\x00\x00\x00\x00\x00\x00\x00\x00\x00\x00\x00\x00\x00\x00\x00\x00\x00\x00\x00\x00\x00\x00\x00\x00\x00\x00\x00\x00\x00\x00\x00\x00\x00\x00\x00\x00\x00\x00\x00\x00\x00\x00\x00\x00\x00\x00\x00'
p1949
g29
(g30
(I0
tp1950
g17
tp1951
Rp1952
(I1
(tg53
I00
(lp1953
g73
atp1954
b(g1880
NNVAbsolute units of photometry measurement for this point.
p1955
g9
((lp1956
(lp1957
g39
aVmeta.unit;phot
p1958
aatp1959
Rp1960
(lp1961
tp1962
tp1963
baa(lp1964
S'Refcode'
p1965
ag13
(g14
g15
g16
g17
tp1966
Rp1967
(I1
(I64
tp1968
g53
I00
(lp1969
S'1991RC3.9.C...0000d'
p1970
aS'1991RC3.9.C...0000d'
p1971
aS'1991RC3.9.C...0000d'
p1972
aS'1989ESOLV.C...0000L'
p1973
aS'1989ESOLV.C...0000L'
p1974
aS'1989ESOLV.C...0000L'
p1975
aS'1990MNRAS.243..692M'
p1976
aS'2005MNRAS.361...34D'
p1977
aS'1988VIrPh.C...0000d'
p1978
aS'1988VIrPh.C...0000d'
p1979
aS'1988VIrPh.C...0000d'
p1980
aS'1988VIrPh.C...0000d'
p1981
aS'1989ESOLV.C...0000L'
p1982
aS'1989ESOLV.C...0000L'
p1983
aS'1989ESOLV.C...0000L'
p1984
aS'2005MNRAS.361...34D'
p1985
aS'2006ApJS..165..307M'
p1986
aS'1988VIrPh.C...0000d'
p1987
aS'1988VIrPh.C...0000d'
p1988
aS'1988VIrPh.C...0000d'
p1989
aS'1988VIrPh.C...0000d'
p1990
aS'1996ApJS..107...97M'
p1991
aS'2005MNRAS.361...34D'
p1992
aS'2007ApJS..172..599S'
p1993
aS'2007ApJS..172..599S'
p1994
aS'1988VIrPh.C...0000d'
p1995
aS'1988VIrPh.C...0000d'
p1996
aS'1988VIrPh.C...0000d'
p1997
aS'1988VIrPh.C...0000d'
p1998
aS'2006AJ....131.1163S'
p1999
aS'2006AJ....131.1163S'
p2000
aS'2006AJ....131.1163S'
p2001
aS'2003AJ....125..525J'
p2002
aS'2003AJ....125..525J'
p2003
aS'2003AJ....125..525J'
p2004
aS'20032MASX.C.......:'
p2005
aS'2003AJ....125..525J'
p2006
aS'2003AJ....125..525J'
p2007
aS'2003AJ....125..525J'
p2008
aS'20032MASX.C.......:'
p2009
aS'2006AJ....131.1163S'
p2010
aS'2006AJ....131.1163S'
p2011
aS'2006AJ....131.1163S'
p2012
aS'2006AJ....131.1163S'
p2013
aS'2006AJ....131.1163S'
p2014
aS'20032MASX.C.......:'
p2015
aS'2003AJ....125..525J'
p2016
aS'2003AJ....125..525J'
p2017
aS'2003AJ....125..525J'
p2018
aS'1988ApJS...68...91R'
p2019
aS'1990IRASF.C...0000M'
p2020
aS'1988ApJS...68...91R'
p2021
aS'1990IRASF.C...0000M'
p2022
aS'1990IRASF.C...0000M'
p2023
aS'1988ApJS...68...91R'
p2024
aS'1988ApJS...68...91R'
p2025
aS'1988ApJS...68...91R'
p2026
aS'1990IRASF.C...0000M'
p2027
aS'1991RC3.9.C...0000d'
p2028
aS'2004AJ....128...16K'
p2029
aS'2005MNRAS.361...34D'
p2030
aS'1996ApJS..107...97M'
p2031
aS'1989H&RHI.C...0000H'
p2032
aS'1989H&RHI.C...0000H'
p2033
aS'\x00\x00\x00\x00\x00\x00\x00\x00\x00\x00\x00\x00\x00\x00\x00\x00\x00\x00\x00\x00\x00\x00\x00\x00\x00\x00\x00\x00\x00\x00\x00\x00\x00\x00\x00\x00\x00\x00\x00\x00\x00\x00\x00\x00\x00\x00\x00\x00\x00\x00\x00\x00\x00\x00\x00\x00\x00\x00\x00\x00\x00\x00\x00\x00'
p2034
g29
(g30
(I0
tp2035
g17
tp2036
Rp2037
(I1
(tg53
I00
(lp2038
g73
atp2039
b(g1965
NNVThe NED 19-digit Bibliographic Reference code.
p2040
g9
((lp2041
(lp2042
g39
aVmeta.bib.bibcode
p2043
aatp2044
Rp2045
(lp2046
tp2047
tp2048
baa(lp2049
S'Significance'
p2050
ag13
(g14
g15
g16
g17
tp2051
Rp2052
(I1
(I64
tp2053
g53
I00
(lp2054
S'rms uncertainty'
p2055
aS'rms uncertainty'
p2056
aS'no uncertainty reported'
p2057
aS'typical accuracy'
p2058
aS'typical accuracy'
p2059
aS'typical accuracy'
p2060
aS'rms uncertainty'
p2061
aS'no uncertainty reported'
p2062
aS'no uncertainty reported'
p2063
aS'no uncertainty reported'
p2064
aS'no uncertainty reported'
p2065
aS'no uncertainty reported'
p2066
aS'typical accuracy'
p2067
aS'typical accuracy'
p2068
aS'typical accuracy'
p2069
aS'no uncertainty reported'
p2070
aS'uncertainty'
p2071
aS'no uncertainty reported'
p2072
aS'no uncertainty reported'
p2073
aS'no uncertainty reported'
p2074
aS'no uncertainty reported'
p2075
aS'estimated error'
p2076
aS'no uncertainty reported'
p2077
aS'no uncertainty reported'
p2078
aS'uncertainty'
p2079
aS'no uncertainty reported'
p2080
aS'no uncertainty reported'
p2081
aS'no uncertainty reported'
p2082
aS'no uncertainty reported'
p2083
aS'uncertainty'
p2084
aS'95% confidence'
p2085
aS'uncertainty'
p2086
aS'1 sigma uncert.'
p2087
aS'1 sigma uncert.'
p2088
aS'1 sigma uncert.'
p2089
aS'1 sigma uncert.'
p2090
aS'1 sigma uncert.'
p2091
aS'1 sigma uncert.'
p2092
aS'1 sigma uncert.'
p2093
aS'1 sigma uncert.'
p2094
aS'uncertainty'
p2095
aS'95% confidence'
p2096
aS'uncertainty'
p2097
aS'95% confidence'
p2098
aS'95% confidence'
p2099
aS'1 sigma uncert.'
p2100
aS'1 sigma uncert.'
p2101
aS'1 sigma uncert.'
p2102
aS'1 sigma uncert.'
p2103
aS'uncertainty'
p2104
aS'90% confidence'
p2105
aS'3 times noise'
p2106
aS'90% confidence'
p2107
aS'uncertainty'
p2108
aS'uncertainty'
p2109
aS'no uncertainty reported'
p2110
aS'uncertainty'
p2111
aS'uncertainty'
p2112
aS'rms uncertainty'
p2113
aS'uncertainty'
p2114
aS'no uncertainty reported'
p2115
aS'no uncertainty reported'
p2116
aS'no uncertainty reported'
p2117
aS'no uncertainty reported'
p2118
aS'\x00\x00\x00\x00\x00\x00\x00\x00\x00\x00\x00\x00\x00\x00\x00\x00\x00\x00\x00\x00\x00\x00\x00\x00\x00\x00\x00\x00\x00\x00\x00\x00\x00\x00\x00\x00\x00\x00\x00\x00\x00\x00\x00\x00\x00\x00\x00\x00\x00\x00\x00\x00\x00\x00\x00\x00\x00\x00\x00\x00\x00\x00\x00\x00'
p2119
g29
(g30
(I0
tp2120
g17
tp2121
Rp2122
(I1
(tg53
I00
(lp2123
g73
atp2124
b(g2050
NNVType of uncertainty reported in the original publication
p2125
g9
((lp2126
(lp2127
g39
aVmeta.code.error
p2128
aatp2129
Rp2130
(lp2131
tp2132
tp2133
baa(lp2134
S'Published frequency'
p2135
ag13
(g14
g15
g16
g17
tp2136
Rp2137
(I1
(I64
tp2138
g53
I00
(lp2139
S'4400       A'
p2140
aS'4400       A'
p2141
aS'4400       A'
p2142
aS'4400       A'
p2143
aS'4400       A'
p2144
aS'4400       A'
p2145
aS'4680      A'
p2146
aS'4680   A'
p2147
aS'5530   A'
p2148
aS'5530   A'
p2149
aS'5530   A'
p2150
aS'5530   A'
p2151
aS'6400       A'
p2152
aS'6400       A'
p2153
aS'6400       A'
p2154
aS'6400   A'
p2155
aS'6563   A'
p2156
aS'6690   A'
p2157
aS'6690   A'
p2158
aS'6690   A'
p2159
aS'6690   A'
p2160
aS'8060       A'
p2161
aS'7900   A'
p2162
aS'7900 A'
p2163
aS'7900 A'
p2164
aS'8000   A'
p2165
aS'8000   A'
p2166
aS'8000   A'
p2167
aS'8000   A'
p2168
aS'1.235      microns'
p2169
aS'1.235      microns'
p2170
aS'1.235      microns'
p2171
aS'1.25      microns'
p2172
aS'1.25      microns'
p2173
aS'1.25      microns'
p2174
aS'1.25      microns'
p2175
aS'1.65      microns'
p2176
aS'1.65      microns'
p2177
aS'1.65      microns'
p2178
aS'1.65      microns'
p2179
aS'1.662      microns'
p2180
aS'1.662      microns'
p2181
aS'1.662      microns'
p2182
aS'2.159      microns'
p2183
aS'2.159      microns'
p2184
aS'2.17      microns'
p2185
aS'2.17      microns'
p2186
aS'2.17      microns'
p2187
aS'2.17      microns'
p2188
aS'12   microns'
p2189
aS'12        microns'
p2190
aS'25   microns'
p2191
aS'25        microns'
p2192
aS'60        microns'
p2193
aS'60   microns'
p2194
aS'82.5 microns'
p2195
aS'100   microns'
p2196
aS'100       microns'
p2197
aS'21         cm'
p2198
aS'915   km s^-1^'
p2199
aS'914.9      km s^-1^'
p2200
aS'21         cm'
p2201
aS'21         cm'
p2202
aS'21         cm'
p2203
aS'\x00\x00\x00\x00\x00\x00\x00\x00\x00\x00\x00\x00\x00\x00\x00\x00\x00\x00\x00\x00\x00\x00\x00\x00\x00\x00\x00\x00\x00\x00\x00\x00\x00\x00\x00\x00\x00\x00\x00\x00\x00\x00\x00\x00\x00\x00\x00\x00\x00\x00\x00\x00\x00\x00\x00\x00\x00\x00\x00\x00\x00\x00\x00\x00'
p2204
g29
(g30
(I0
tp2205
g17
tp2206
Rp2207
(I1
(tg53
I00
(lp2208
g73
atp2209
b(g2135
NNVWavelength or frequency  of observation as given in the original publication
p2210
g9
((lp2211
(lp2212
g39
aVmeta.ref;em.freq
p2213
aatp2214
Rp2215
(lp2216
tp2217
tp2218
baa(lp2219
S'Frequency Mode'
p2220
ag13
(g14
g15
g16
g17
tp2221
Rp2222
(I1
(I64
tp2223
g53
I00
(lp2224
S'Broad-band measurement'
p2225
aS'Broad-band measurement'
p2226
aS'Broad-band measurement'
p2227
aS'Broad-band measurement; photometric system transformed'
p2228
aS'Broad-band measurement; photometric system transformed'
p2229
aS'Broad-band measurement; photometric system transformed'
p2230
aS'Broad-band measurement'
p2231
aS'Broad-band measurement'
p2232
aS'Broad-band measurement'
p2233
aS'Broad-band measurement'
p2234
aS'Broad-band measurement'
p2235
aS'Broad-band measurement'
p2236
aS'Broad-band measurement; photometric system transformed'
p2237
aS'Broad-band measurement; photometric system transformed'
p2238
aS'Broad-band measurement; photometric system transformed'
p2239
aS'Broad-band measurement'
p2240
aS'Line measurement; flux integrated over line'
p2241
aS'Broad-band measurement'
p2242
aS'Broad-band measurement'
p2243
aS'Broad-band measurement'
p2244
aS'Broad-band measurement'
p2245
aS'Broad-band measurement'
p2246
aS'Broad-band measurement'
p2247
aS'Broad-band measurement'
p2248
aS'Broad-band measurement'
p2249
aS'Broad-band measurement'
p2250
aS'Broad-band measurement'
p2251
aS'Broad-band measurement'
p2252
aS'Broad-band measurement'
p2253
aS'Broad-band measurement'
p2254
aS'Broad-band measurement'
p2255
aS'Broad-band measurement'
p2256
aS'Broad-band measurement'
p2257
aS'Broad-band measurement'
p2258
aS'Broad-band measurement'
p2259
aS'Broad-band measurement'
p2260
aS'Broad-band measurement'
p2261
aS'Broad-band measurement'
p2262
aS'Broad-band measurement'
p2263
aS'Broad-band measurement'
p2264
aS'Broad-band measurement'
p2265
aS'Broad-band measurement'
p2266
aS'Broad-band measurement'
p2267
aS'Broad-band measurement'
p2268
aS'Broad-band measurement'
p2269
aS'Broad-band measurement'
p2270
aS'Broad-band measurement'
p2271
aS'Broad-band measurement'
p2272
aS'Broad-band measurement'
p2273
aS'Broad-band measurement'
p2274
aS'Broad-band measurement'
p2275
aS'Broad-band measurement'
p2276
aS'Broad-band measurement'
p2277
aS'Broad-band measurement'
p2278
aS'Broad-band measurement'
p2279
aS'Broad-band measurement; synthetic band'
p2280
aS'Broad-band measurement'
p2281
aS'Broad-band measurement'
p2282
aS'Line measurement; flux integrated over line; lines measured in emission'
p2283
aS'Line measurement; flux integrated over line'
p2284
aS'Line measurement; flux integrated over line; lines measured in emission'
p2285
aS'Line measurement; flux integrated over line; lines measured in emission'
p2286
aS'Line measurement; flux integrated over line; lines measured in emission'
p2287
aS'Line measurement; flux integrated over line; lines measured in emission'
p2288
aS'\x00\x00\x00\x00\x00\x00\x00\x00\x00\x00\x00\x00\x00\x00\x00\x00\x00\x00\x00\x00\x00\x00\x00\x00\x00\x00\x00\x00\x00\x00\x00\x00\x00\x00\x00\x00\x00\x00\x00\x00\x00\x00\x00\x00\x00\x00\x00\x00\x00\x00\x00\x00\x00\x00\x00\x00\x00\x00\x00\x00\x00\x00\x00\x00'
p2289
g29
(g30
(I0
tp2290
g17
tp2291
Rp2292
(I1
(tg53
I00
(lp2293
g73
atp2294
b(g2220
NNVThe method(s) by which the data were collected, reduced, or derived, regarding the frequency or wavelength;
p2295
g9
((lp2296
(lp2297
g39
aVmeta.ref;em.freq;instr.setup
p2298
aatp2299
Rp2300
(lp2301
tp2302
tp2303
baa(lp2304
S'Coordinates Targeted'
p2305
ag13
(g14
g15
g16
g17
tp2306
Rp2307
(I1
(I64
tp2308
g53
I00
(lp2309
S'221754.0 -461712 (B1950)'
p2310
aS'221754.0 -461712 (B1950)'
p2311
aS'221754.0 -461712 (B1950)'
p2312
aS'221754 -4617.2 (B1950)'
p2313
aS'221754 -4617.2 (B1950)'
p2314
aS'221754 -4617.2 (B1950)'
p2315
aS'221754.57 -461655.5 (B1950)'
p2316
aS'222056.9 -460213.5 (J2000)'
p2317
ag121
ag121
ag121
ag121
aS'221754 -4617.2 (B1950)'
p2318
aS'221754 -4617.2 (B1950)'
p2319
aS'221754 -4617.2 (B1950)'
p2320
aS'222056.9 -460213.5 (J2000)'
p2321
aS'22 20 57.3 -46 02 08 (J2000)'
p2322
ag121
ag121
ag121
ag121
aS'221754 -461712 (B1950)'
p2323
aS'222056.9 -460213.5 (J2000)'
p2324
aS'22 20 57.2 -46 01 52 (J2000)'
p2325
aS'22 20 57.2 -46 01 52 (J2000)'
p2326
ag121
ag121
ag121
ag121
ag121
ag121
ag121
aS'222057.44 -460209.1 (J2000)'
p2327
aS'222057.44 -460209.1 (J2000)'
p2328
aS'222057.44 -460209.1 (J2000)'
p2329
aS'222057.44 -460209.1 (J2000)'
p2330
aS'222057.44 -460209.1 (J2000)'
p2331
aS'222057.44 -460209.1 (J2000)'
p2332
aS'222057.44 -460209.1 (J2000)'
p2333
aS'222057.44 -460209.1 (J2000)'
p2334
ag121
ag121
ag121
ag121
ag121
aS'222057.44 -460209.1 (J2000)'
p2335
aS'222057.44 -460209.1 (J2000)'
p2336
aS'222057.44 -460209.1 (J2000)'
p2337
aS'222057.44 -460209.1 (J2000)'
p2338
ag121
aS'221752.3 -461759 (B1950)'
p2339
ag121
aS'221752.3 -461759 (B1950)'
p2340
aS'221752.3 -461759 (B1950)'
p2341
ag121
ag121
ag121
aS'221752.3 -461759 (B1950)'
p2342
aS'221754.0 -461712 (B1950)'
p2343
aS'22 20 57 -46 02 55 (J2000)'
p2344
aS'222057.3 -460226. (J2000)'
p2345
aS'221754 -461712 (B1950)'
p2346
aS'221818. -461900. (B1950)'
p2347
aS'221754. -461700. (B1950)'
p2348
aS'\x00\x00\x00\x00\x00\x00\x00\x00\x00\x00\x00\x00\x00\x00\x00\x00\x00\x00\x00\x00\x00\x00\x00\x00\x00\x00\x00\x00\x00\x00\x00\x00\x00\x00\x00\x00\x00\x00\x00\x00\x00\x00\x00\x00\x00\x00\x00\x00\x00\x00\x00\x00\x00\x00\x00\x00\x00\x00\x00\x00\x00\x00\x00\x00'
p2349
g29
(g30
(I0
tp2350
g17
tp2351
Rp2352
(I1
(tg53
I00
(lp2353
g73
atp2354
b(g2305
NNVThe position at which the measurements were taken, followed by the coordinate reference frame (e.g.,  013350.90 +303935.8 (J2000) in format HHMMSS.ss +DDMMSS.s (EQUINOX),  etc.).
p2355
g9
((lp2356
(lp2357
g39
aVpos
p2358
aatp2359
Rp2360
(lp2361
tp2362
tp2363
baa(lp2364
S'Spatial Mode'
p2365
ag13
(g14
g15
g16
g17
tp2366
Rp2367
(I1
(I64
tp2368
g53
I00
(lp2369
S'Flux integrated from map'
p2370
aS'Multiple methods'
p2371
aS'Multiple methods'
p2372
aS'Modelled datum'
p2373
aS'Modelled datum'
p2374
aS'Modelled datum'
p2375
aS'Flux integrated from map'
p2376
aS'Flux in fixed aperture'
p2377
aS'Flux in fixed aperture'
p2378
aS'Flux in fixed aperture'
p2379
aS'Flux in fixed aperture'
p2380
aS'Flux in fixed aperture'
p2381
aS'Modelled datum'
p2382
aS'Modelled datum'
p2383
aS'Modelled datum'
p2384
aS'Flux in fixed aperture'
p2385
aS'Flux in fixed aperture'
p2386
aS'Flux in fixed aperture'
p2387
aS'Flux in fixed aperture'
p2388
aS'Flux in fixed aperture'
p2389
aS'Flux in fixed aperture'
p2390
aS'From multi-aperture data'
p2391
aS'Flux in fixed aperture'
p2392
aS'Total flux'
p2393
aS'Total flux'
p2394
aS'Flux in fixed aperture'
p2395
aS'Flux in fixed aperture'
p2396
aS'Flux in fixed aperture'
p2397
aS'Flux in fixed aperture'
p2398
aS'Flux in fixed aperture'
p2399
aS'Flux in fixed aperture'
p2400
aS'Flux in fixed aperture'
p2401
aS'Flux integrated from map'
p2402
aS'Flux integrated from map'
p2403
aS'Total flux'
p2404
aS'Flux in fixed aperture'
p2405
aS'Flux integrated from map'
p2406
aS'Flux integrated from map'
p2407
aS'Total flux'
p2408
aS'Flux in fixed aperture'
p2409
aS'Flux in fixed aperture'
p2410
aS'Flux in fixed aperture'
p2411
aS'Flux in fixed aperture'
p2412
aS'Flux in fixed aperture'
p2413
aS'Flux in fixed aperture'
p2414
aS'Flux in fixed aperture'
p2415
aS'Flux integrated from map'
p2416
aS'Flux integrated from map'
p2417
aS'Total flux'
p2418
aS'Flux integrated from map'
p2419
aS'Flux in fixed aperture'
p2420
aS'Flux integrated from map'
p2421
aS'Flux in fixed aperture'
p2422
aS'Flux in fixed aperture'
p2423
aS'Flux integrated from map'
p2424
aS'Flux integrated from map'
p2425
aS'Flux integrated from map'
p2426
aS'Flux in fixed aperture'
p2427
aS'Multiple methods'
p2428
aS'Flux integrated from map'
p2429
aS'Flux integrated from map'
p2430
aS'Integrated from scans; Beam filling or dilution corrected'
p2431
aS'Not reported in paper'
p2432
aS'Not reported in paper'
p2433
aS'\x00\x00\x00\x00\x00\x00\x00\x00\x00\x00\x00\x00\x00\x00\x00\x00\x00\x00\x00\x00\x00\x00\x00\x00\x00\x00\x00\x00\x00\x00\x00\x00\x00\x00\x00\x00\x00\x00\x00\x00\x00\x00\x00\x00\x00\x00\x00\x00\x00\x00\x00\x00\x00\x00\x00\x00\x00\x00\x00\x00\x00\x00\x00\x00'
p2434
g29
(g30
(I0
tp2435
g17
tp2436
Rp2437
(I1
(tg53
I00
(lp2438
g73
atp2439
b(g2365
NNVThe method(s) by which the data were collected, reduced, or derived, regarding the spatially integrated flux
p2440
g9
((lp2441
(lp2442
g39
aVphot.flux;instr.setup
p2443
aatp2444
Rp2445
(lp2446
tp2447
tp2448
baa(lp2449
S'Qualifiers'
p2450
ag13
(g14
g15
g16
g17
tp2451
Rp2452
(I1
(I64
tp2453
g53
I00
(lp2454
g121
ag121
ag121
ag121
ag121
ag121
ag121
ag121
aS'261.9" aperture'
p2455
aS'134.3" aperture;Low quality data'
p2456
aS'134.3" aperture'
p2457
aS'261.9" aperture'
p2458
ag121
ag121
ag121
ag121
aS'Corrected for [N II] contamination'
p2459
aS'134.3" aperture'
p2460
aS'134.3" aperture'
p2461
aS'261.9" aperture'
p2462
aS'261.9" aperture'
p2463
ag121
ag121
ag121
aS'Observed magnitude'
p2464
aS'261.9" aperture'
p2465
aS'134.3" aperture'
p2466
aS'261.9" aperture'
p2467
aS'134.3" aperture;Low quality data'
p2468
aS'Profile-fit'
p2469
ag121
aS'4" aperture'
p2470
aS'98.8 x   25.7 arcsec integration area.'
p2471
aS'198.6 x   51.6 arcsec integration area.'
p2472
ag121
aS'14.0 x 14.0 arcsec aperture'
p2473
aS'98.8 x   25.7 arcsec integration area.'
p2474
aS'198.6 x   51.6 arcsec integration area.'
p2475
ag121
aS'14.0 x 14.0 arcsec aperture'
p2476
aS'4" aperture'
p2477
ag121
aS'Profile-fit'
p2478
ag121
ag121
aS'14.0 x 14.0 arcsec aperture'
p2479
aS'198.6 x   51.6 arcsec integration area.'
p2480
aS'98.8 x   25.7 arcsec integration area.'
p2481
ag121
ag121
ag121
ag121
ag121
aS'IRAS quality flag = 3'
p2482
ag121
ag121
ag121
aS'IRAS quality flag = 2'
p2483
aS'm_21 equiv. to S(HI) = 7.178E-21 W m^-2'
p2484
ag121
ag121
ag121
ag121
ag121
aS'\x00\x00\x00\x00\x00\x00\x00\x00\x00\x00\x00\x00\x00\x00\x00\x00\x00\x00\x00\x00\x00\x00\x00\x00\x00\x00\x00\x00\x00\x00\x00\x00\x00\x00\x00\x00\x00\x00\x00\x00\x00\x00\x00\x00\x00\x00\x00\x00\x00\x00\x00\x00\x00\x00\x00\x00\x00\x00\x00\x00\x00\x00\x00\x00'
p2485
g29
(g30
(I0
tp2486
g17
tp2487
Rp2488
(I1
(tg53
I00
(lp2489
g73
atp2490
b(g2450
NNVSelf-explanatory notes pertaining to the history of the data or adjustments to the data or hanges introduced by NED
p2491
g9
((lp2492
(lp2493
g39
aVmeta.note;instr.setup
p2494
aatp2495
Rp2496
(lp2497
tp2498
tp2499
baa(lp2500
S'Comments'
p2501
ag13
(g14
g15
g16
g17
tp2502
Rp2503
(I1
(I64
tp2504
g53
I00
(lp2505
S'Homogenized from new and previously published data; StandardJohnson UBVRI filters assumed'
p2506
aS'Homogenized from new and previously published data; StandardJohnson UBVRI filters assumed'
p2507
aS'Homogenized from new and previously published data;Extinction-corrected for internal and Milky Way andK-correction applied; Standard Johnson UBVRI filtersassumed'
p2508
aS'From new raw data'
p2509
aS'From new raw data'
p2510
aS'From new raw data'
p2511
aS'From new raw data'
p2512
aS'From new raw data'
p2513
aS'From new raw data; Uncorrected for known sources in beam'
p2514
aS'From new raw data'
p2515
aS'From new raw data'
p2516
aS'From new raw data; Uncorrected for known sources in beam'
p2517
aS'From new raw data'
p2518
aS'From new raw data'
p2519
aS'From new raw data'
p2520
aS'From new raw data'
p2521
aS'From new raw data; Extinction-corrected for Milky Way'
p2522
aS'From new raw data'
p2523
aS'From new raw data'
p2524
aS'From new raw data; Uncorrected for known sources in beam'
p2525
aS'From new raw data; Uncorrected for known sources in beam'
p2526
aS'From new raw data; Corrected for contaminating sources'
p2527
aS'From new raw data'
p2528
aS'Averaged new and previously published data;Extinction-corrected for Milky Way; Standard Cousins R_C, I_Cfilters assumed'
p2529
aS'Averaged new and previously published data; Standard CousinsR_C, I_C filters assumed'
p2530
aS'From new raw data; Uncorrected for known sources in beam'
p2531
aS'From new raw data'
p2532
aS'From new raw data; Uncorrected for known sources in beam'
p2533
aS'From new raw data'
p2534
aS'From new raw data'
p2535
aS'From new raw data'
p2536
aS'From new raw data'
p2537
aS'From new raw data'
p2538
aS'From new raw data'
p2539
aS'From new raw data'
p2540
aS'From new raw data'
p2541
aS'From new raw data'
p2542
aS'From new raw data'
p2543
aS'From new raw data'
p2544
aS'From new raw data'
p2545
aS'From new raw data'
p2546
aS'From new raw data'
p2547
aS'From new raw data'
p2548
aS'From new raw data'
p2549
aS'From new raw data'
p2550
aS'From new raw data'
p2551
aS'From new raw data'
p2552
aS'From new raw data'
p2553
aS'From new raw data'
p2554
aS'From reprocessed raw data'
p2555
aS'From new raw data'
p2556
aS'From reprocessed raw data'
p2557
aS'From new raw data'
p2558
aS'From new raw data'
p2559
aS'From reprocessed raw data'
p2560
aS'From reprocessed raw data'
p2561
aS'From reprocessed raw data'
p2562
aS'From new raw data'
p2563
aS'Homogenized from new and previously published data'
p2564
aS'From new raw data'
p2565
aS'Averaged from previously published data'
p2566
aS'From new raw data; Corrected for flux in reference beam'
p2567
aS'Transformed from previously published data'
p2568
aS'Transformed from previously published data'
p2569
aS'\x00\x00\x00\x00\x00\x00\x00\x00\x00\x00\x00\x00\x00\x00\x00\x00\x00\x00\x00\x00\x00\x00\x00\x00\x00\x00\x00\x00\x00\x00\x00\x00\x00\x00\x00\x00\x00\x00\x00\x00\x00\x00\x00\x00\x00\x00\x00\x00\x00\x00\x00\x00\x00\x00\x00\x00\x00\x00\x00\x00\x00\x00\x00\x00'
p2570
g29
(g30
(I0
tp2571
g17
tp2572
Rp2573
(I1
(tg53
I00
(lp2574
g73
atp2575
b(g2501
NNVOther information from the published source or from NED that may be helpful in interpreting or qualifying the data.
p2576
g9
((lp2577
(lp2578
g39
aVmeta.note;comment
p2579
aatp2580
Rp2581
(lp2582
tp2583
tp2584
baatp2585
Rp2586
(dp2587
g703
VPublished and Homogenized [Frequency, Flux Density] Units
p2588
sg705
VPhotometric Data for IC 5201
p2589
sg707
VNED_PhotometricData
p2590
stp2591
bsg710
g711
sg712
g713
(g21
(S'S7'
p2592
I0
I1
tp2593
Rp2594
(I3
S'|'
p2595
NNNI7
I1
I0
tp2596
bS'IC 5201'
p2597
tp2598
Rp2599
sg722
(lp2600
g713
(g91
S':\xaf\xb1K\xd4\xf3t@'
p2601
tp2602
Rp2603
ag713
(g91
S'\x06\x9e{\x0f\x97\x04G\xc0'
p2604
tp2605
Rp2606
asa(dp2607
g2
F911.0
sg3
g4
(g5
g6
Ntp2608
Rp2609
(g9
((lp2610
(lp2611
S'No.'
p2612
ag13
(g14
g15
g16
g17
tp2613
Rp2614
(I1
(I11
tp2615
g24
I00
S'\x01\x00\x00\x00\x02\x00\x00\x00\x03\x00\x00\x00\x04\x00\x00\x00\x05\x00\x00\x00\x06\x00\x00\x00\x07\x00\x00\x00\x08\x00\x00\x00\t\x00\x00\x00\n\x00\x00\x00\x0b\x00\x00\x00'
p2616
S'\x00\x00\x00\x00\x00\x00\x00\x00\x00\x00\x00'
p2617
g29
(g30
(I0
tp2618
g17
tp2619
Rp2620
(I1
(tg24
I00
S'?B\x0f\x00'
p2621
tp2622
b(g2612
NNVA sequential number of Photometry Measurement for this object, applicable to this list only.
p2623
g9
((lp2624
(lp2625
g39
aVmeta.number;phot.mag
p2626
aatp2627
Rp2628
(lp2629
tp2630
tp2631
baa(lp2632
S'Observed Passband'
p2633
ag13
(g14
g15
g16
g17
tp2634
Rp2635
(I1
(I11
tp2636
g53
I00
(lp2637
S'FUV (GALEX) AB'
p2638
aS'FUV (GALEX) AB'
p2639
aS'NUV (GALEX) AB'
p2640
aS'NUV (GALEX) AB'
p2641
aS'B (Cousins) (B_26)'
p2642
aS'B (Cousins) (B_T)'
p2643
aS'B (Cousins) (B_25)'
p2644
aS'b_J'
p2645
aS'R (Cousins) (R_26)'
p2646
aS'R (Cousins) (R_T)'
p2647
aS'R (Cousins) (R_25)'
p2648
aS'\x00\x00\x00\x00\x00\x00\x00\x00\x00\x00\x00'
p2649
g29
(g30
(I0
tp2650
g17
tp2651
Rp2652
(I1
(tg53
I00
(lp2653
g73
atp2654
b(g2633
NNVColloquial descriptions of the frequency or wavelength at which the data were collected, identifying the bandpass by name e.g., "V","1.4GHz", "6 cm", "HI", etc.
p2655
g9
((lp2656
(lp2657
g39
aVinstr.bandpass
p2658
aatp2659
Rp2660
(lp2661
tp2662
tp2663
baa(lp2664
S'Photometry Measurement'
p2665
ag13
(g14
g15
g16
g17
tp2666
Rp2667
(I1
(I11
tp2668
g91
I00
S'>\xe8\xd9\xac\xfa\x8c1@F%u\x02\x9a\xc83@U\xc1\xa8\xa4NP1@\xab>W[\xb1\xaf3@{\x14\xaeG\xe1z/@H\xe1z\x14\xaeG/@\x1f\x85\xebQ\xb8\x9e/@\xc3\xf5(\\\x8fB/@\xecQ\xb8\x1e\x85\xeb-@{\x14\xaeG\xe1z,@\x9a\x99\x99\x99\x99\x19.@'
p2669
S'\x00\x00\x00\x00\x00\x00\x00\x00\x00\x00\x00'
p2670
g29
(g30
(I0
tp2671
g17
tp2672
Rp2673
(I1
(tg91
I00
S'@\x8c\xb5x\x1d\xaf\x15D'
p2674
tp2675
b(g2665
NV{!r:>}
p2676
VThe published photometry or fluxes  for this point.
p2677
g9
((lp2678
(lp2679
g39
aVphot
p2680
aatp2681
Rp2682
(lp2683
tp2684
tp2685
baa(lp2686
S'Uncertainty'
p2687
ag13
(g14
g15
g16
g17
tp2688
Rp2689
(I1
(I11
tp2690
g53
I00
(lp2691
S'+/-0.0469922'
p2692
aS'+/-0.152077'
p2693
aS'+/-0.0250537'
p2694
aS'+/-0.0864451'
p2695
aS'+/-0.09'
p2696
aS'+/-0.09'
p2697
aS'+/-0.09'
p2698
aS'+/-0.12'
p2699
aS'+/-0.09'
p2700
aS'+/-0.09'
p2701
aS'+/-0.09'
p2702
aS'\x00\x00\x00\x00\x00\x00\x00\x00\x00\x00\x00'
p2703
g29
(g30
(I0
tp2704
g17
tp2705
Rp2706
(I1
(tg53
I00
(lp2707
g73
atp2708
b(g2687
NNVThe published uncertainty for photometric data.
p2709
g9
((lp2710
(lp2711
g39
aVstat.error;phot
p2712
aatp2713
Rp2714
(lp2715
tp2716
tp2717
baa(lp2718
S'Units'
p2719
ag13
(g14
g15
g16
g17
tp2720
Rp2721
(I1
(I11
tp2722
g53
I00
(lp2723
S'mag'
p2724
aS'mag'
p2725
aS'mag'
p2726
aS'mag'
p2727
aS'mag'
p2728
aS'mag'
p2729
aS'mag'
p2730
aS'mag'
p2731
aS'mag'
p2732
aS'mag'
p2733
aS'mag'
p2734
aS'\x00\x00\x00\x00\x00\x00\x00\x00\x00\x00\x00'
p2735
g29
(g30
(I0
tp2736
g17
tp2737
Rp2738
(I1
(tg53
I00
(lp2739
g73
atp2740
b(g2719
NNVUnits of photometry measurement for this point.
p2741
g9
((lp2742
(lp2743
g39
aVmeta.unit;phot
p2744
aatp2745
Rp2746
(lp2747
tp2748
tp2749
baa(lp2750
S'Frequency'
p2751
ag13
(g14
g15
g16
g17
tp2752
Rp2753
(I1
(I11
tp2754
g91
I00
S'\x00\x80?\x05\x0f\xb6\x1bC\x00\x80?\x05\x0f\xb6\x1bC\x00\x80\n\x1f\xfeT\x12C\x00\x80\n\x1f\xfeT\x12C\x00\x80\xbcX\xedZ\x03C\x00\x80\xbcX\xedZ\x03C\x00\x80\xbcX\xedZ\x03C\x00\x80h\x8a\xe37\x02C\x00\x00\x14\xdcK\x9a\xfaB\x00\x00\x14\xdcK\x9a\xfaB\x00\x00\x14\xdcK\x9a\xfaB'
p2755
S'\x00\x00\x00\x00\x00\x00\x00\x00\x00\x00\x00'
p2756
g29
(g30
(I0
tp2757
g17
tp2758
Rp2759
(I1
(tg91
I00
S'@\x8c\xb5x\x1d\xaf\x15D'
p2760
tp2761
b(g2751
g186
V{!r:>}
p2762
VThe frequency, wavelength, or photometric passband, in absolute units as calculated by NED
p2763
g9
((lp2764
(lp2765
g39
aVem.freq
p2766
aatp2767
Rp2768
(lp2769
tp2770
tp2771
baa(lp2772
S'NED Photometry Measurement'
p2773
ag13
(g14
g15
g16
g17
tp2774
Rp2775
(I1
(I11
tp2776
g91
I00
S'\xfe\x98\xd6\xa6\xb1\xbd6?\xa9A\xe2h\xd89\x07?\xf1J\x92\xe7\xfa><?\n\xbc\x93O\x8fm\t?"\xfd\xf6u\xe0\x9ca?\'\x88\xba\x0f@jc?\xcep\x03>?\x8c`?\x98Q,\xb7\xb4\x1ab?\xc4_\x935\xea!j?|DL\x89$zy?\x84*5{\xa0\x15h?'
p2777
S'\x00\x00\x00\x00\x00\x00\x00\x00\x00\x00\x00'
p2778
g29
(g30
(I0
tp2779
g17
tp2780
Rp2781
(I1
(tg91
I00
S'@\x8c\xb5x\x1d\xaf\x15D'
p2782
tp2783
b(g2773
g260
V{!r:>}
p2784
VFlux/Photometric data for this point as transformed and stored by NED.
p2785
g9
((lp2786
(lp2787
g39
aVphot
p2788
aatp2789
Rp2790
(lp2791
tp2792
tp2793
baa(lp2794
S'NED Uncertainty'
p2795
ag13
(g14
g15
g16
g17
tp2796
Rp2797
(I1
(I11
tp2798
g53
I00
(lp2799
S'+/-1.50E-05'
p2800
aS'+/-6.21E-06'
p2801
aS'+/-9.94E-06'
p2802
aS'+/-3.86E-06'
p2803
aS'+/-1.86E-04'
p2804
aS'+/-2.05E-04'
p2805
aS'+/-1.75E-04'
p2806
aS'+/-2.58E-04'
p2807
aS'+/-2.75E-04'
p2808
aS'+/-5.38E-04'
p2809
aS'+/-2.54E-04'
p2810
aS'\x00\x00\x00\x00\x00\x00\x00\x00\x00\x00\x00'
p2811
g29
(g30
(I0
tp2812
g17
tp2813
Rp2814
(I1
(tg53
I00
(lp2815
g73
atp2816
b(g2795
NNVPhotometric/Flux uncertainty as transformed and stored by NED.
p2817
g9
((lp2818
(lp2819
g39
aVstat.error;phot
p2820
aatp2821
Rp2822
(lp2823
tp2824
tp2825
baa(lp2826
S'NED Units'
p2827
ag13
(g14
g15
g16
g17
tp2828
Rp2829
(I1
(I11
tp2830
g53
I00
(lp2831
S'Jy'
p2832
aS'Jy'
p2833
aS'Jy'
p2834
aS'Jy'
p2835
aS'Jy'
p2836
aS'Jy'
p2837
aS'Jy'
p2838
aS'Jy'
p2839
aS'Jy'
p2840
aS'Jy'
p2841
aS'Jy'
p2842
aS'\x00\x00\x00\x00\x00\x00\x00\x00\x00\x00\x00'
p2843
g29
(g30
(I0
tp2844
g17
tp2845
Rp2846
(I1
(tg53
I00
(lp2847
g73
atp2848
b(g2827
NNVAbsolute units of photometry measurement for this point.
p2849
g9
((lp2850
(lp2851
g39
aVmeta.unit;phot
p2852
aatp2853
Rp2854
(lp2855
tp2856
tp2857
baa(lp2858
S'Refcode'
p2859
ag13
(g14
g15
g16
g17
tp2860
Rp2861
(I1
(I11
tp2862
g53
I00
(lp2863
S'2012GASC..C...0000S'
p2864
aS'2012GASC..C...0000S'
p2865
aS'2012GASC..C...0000S'
p2866
aS'2012GASC..C...0000S'
p2867
aS'1989ESOLV.C...0000L'
p2868
aS'1989ESOLV.C...0000L'
p2869
aS'1989ESOLV.C...0000L'
p2870
aS'1990MNRAS.243..692M'
p2871
aS'1989ESOLV.C...0000L'
p2872
aS'1989ESOLV.C...0000L'
p2873
aS'1989ESOLV.C...0000L'
p2874
aS'\x00\x00\x00\x00\x00\x00\x00\x00\x00\x00\x00'
p2875
g29
(g30
(I0
tp2876
g17
tp2877
Rp2878
(I1
(tg53
I00
(lp2879
g73
atp2880
b(g2859
NNVThe NED 19-digit Bibliographic Reference code.
p2881
g9
((lp2882
(lp2883
g39
aVmeta.bib.bibcode
p2884
aatp2885
Rp2886
(lp2887
tp2888
tp2889
baa(lp2890
S'Significance'
p2891
ag13
(g14
g15
g16
g17
tp2892
Rp2893
(I1
(I11
tp2894
g53
I00
(lp2895
S'uncertainty'
p2896
aS'uncertainty'
p2897
aS'uncertainty'
p2898
aS'uncertainty'
p2899
aS'typical accuracy'
p2900
aS'typical accuracy'
p2901
aS'typical accuracy'
p2902
aS'rms uncertainty'
p2903
aS'typical accuracy'
p2904
aS'typical accuracy'
p2905
aS'typical accuracy'
p2906
aS'\x00\x00\x00\x00\x00\x00\x00\x00\x00\x00\x00'
p2907
g29
(g30
(I0
tp2908
g17
tp2909
Rp2910
(I1
(tg53
I00
(lp2911
g73
atp2912
b(g2891
NNVType of uncertainty reported in the original publication
p2913
g9
((lp2914
(lp2915
g39
aVmeta.code.error
p2916
aatp2917
Rp2918
(lp2919
tp2920
tp2921
baa(lp2922
S'Published frequency'
p2923
ag13
(g14
g15
g16
g17
tp2924
Rp2925
(I1
(I11
tp2926
g53
I00
(lp2927
S'1538.6     A'
p2928
aS'1538.6     A'
p2929
aS'2315.7     A'
p2930
aS'2315.7     A'
p2931
aS'4400       A'
p2932
aS'4400       A'
p2933
aS'4400       A'
p2934
aS'4680      A'
p2935
aS'6400       A'
p2936
aS'6400       A'
p2937
aS'6400       A'
p2938
aS'\x00\x00\x00\x00\x00\x00\x00\x00\x00\x00\x00'
p2939
g29
(g30
(I0
tp2940
g17
tp2941
Rp2942
(I1
(tg53
I00
(lp2943
g73
atp2944
b(g2923
NNVWavelength or frequency  of observation as given in the original publication
p2945
g9
((lp2946
(lp2947
g39
aVmeta.ref;em.freq
p2948
aatp2949
Rp2950
(lp2951
tp2952
tp2953
baa(lp2954
S'Frequency Mode'
p2955
ag13
(g14
g15
g16
g17
tp2956
Rp2957
(I1
(I11
tp2958
g53
I00
(lp2959
S'Broad-band measurement'
p2960
aS'Broad-band measurement'
p2961
aS'Broad-band measurement'
p2962
aS'Broad-band measurement'
p2963
aS'Broad-band measurement; photometric system transformed'
p2964
aS'Broad-band measurement; photometric system transformed'
p2965
aS'Broad-band measurement; photometric system transformed'
p2966
aS'Broad-band measurement'
p2967
aS'Broad-band measurement; photometric system transformed'
p2968
aS'Broad-band measurement; photometric system transformed'
p2969
aS'Broad-band measurement; photometric system transformed'
p2970
aS'\x00\x00\x00\x00\x00\x00\x00\x00\x00\x00\x00'
p2971
g29
(g30
(I0
tp2972
g17
tp2973
Rp2974
(I1
(tg53
I00
(lp2975
g73
atp2976
b(g2955
NNVThe method(s) by which the data were collected, reduced, or derived, regarding the frequency or wavelength;
p2977
g9
((lp2978
(lp2979
g39
aVmeta.ref;em.freq;instr.setup
p2980
aatp2981
Rp2982
(lp2983
tp2984
tp2985
baa(lp2986
S'Coordinates Targeted'
p2987
ag13
(g14
g15
g16
g17
tp2988
Rp2989
(I1
(I11
tp2990
g53
I00
(lp2991
S'335.29857537322 -45.67648481562 (J2000)'
p2992
aS'335.29857537322 -45.67648481562 (J2000)'
p2993
aS'335.29857537322 -45.67648481562 (J2000)'
p2994
aS'335.29857537322 -45.67648481562 (J2000)'
p2995
aS'221809 -4555.7 (B1950)'
p2996
aS'221809 -4555.7 (B1950)'
p2997
aS'221809 -4555.7 (B1950)'
p2998
aS'221808.85 -455543.4 (B1950)'
p2999
aS'221809 -4555.7 (B1950)'
p3000
aS'221809 -4555.7 (B1950)'
p3001
aS'221809 -4555.7 (B1950)'
p3002
aS'\x00\x00\x00\x00\x00\x00\x00\x00\x00\x00\x00'
p3003
g29
(g30
(I0
tp3004
g17
tp3005
Rp3006
(I1
(tg53
I00
(lp3007
g73
atp3008
b(g2987
NNVThe position at which the measurements were taken, followed by the coordinate reference frame (e.g.,  013350.90 +303935.8 (J2000) in format HHMMSS.ss +DDMMSS.s (EQUINOX),  etc.).
p3009
g9
((lp3010
(lp3011
g39
aVpos
p3012
aatp3013
Rp3014
(lp3015
tp3016
tp3017
baa(lp3018
S'Spatial Mode'
p3019
ag13
(g14
g15
g16
g17
tp3020
Rp3021
(I1
(I11
tp3022
g53
I00
(lp3023
S'Flux integrated from map'
p3024
aS'Flux in fixed aperture'
p3025
aS'Flux integrated from map'
p3026
aS'Flux in fixed aperture'
p3027
aS'Modelled datum'
p3028
aS'Modelled datum'
p3029
aS'Modelled datum'
p3030
aS'Flux integrated from map'
p3031
aS'Modelled datum'
p3032
aS'Modelled datum'
p3033
aS'Modelled datum'
p3034
aS'\x00\x00\x00\x00\x00\x00\x00\x00\x00\x00\x00'
p3035
g29
(g30
(I0
tp3036
g17
tp3037
Rp3038
(I1
(tg53
I00
(lp3039
g73
atp3040
b(g3019
NNVThe method(s) by which the data were collected, reduced, or derived, regarding the spatially integrated flux
p3041
g9
((lp3042
(lp3043
g39
aVphot.flux;instr.setup
p3044
aatp3045
Rp3046
(lp3047
tp3048
tp3049
baa(lp3050
S'Qualifiers'
p3051
ag13
(g14
g15
g16
g17
tp3052
Rp3053
(I1
(I11
tp3054
g53
I00
(lp3055
S'Kron flux in elliptical aperture'
p3056
aS'Flux in 7.5 arcsec diameter aperture'
p3057
aS'Kron flux in elliptical aperture'
p3058
aS'Flux in 7.5 arcsec diameter aperture'
p3059
ag121
ag121
ag121
ag121
ag121
ag121
ag121
aS'\x00\x00\x00\x00\x00\x00\x00\x00\x00\x00\x00'
p3060
g29
(g30
(I0
tp3061
g17
tp3062
Rp3063
(I1
(tg53
I00
(lp3064
g73
atp3065
b(g3051
NNVSelf-explanatory notes pertaining to the history of the data or adjustments to the data or hanges introduced by NED
p3066
g9
((lp3067
(lp3068
g39
aVmeta.note;instr.setup
p3069
aatp3070
Rp3071
(lp3072
tp3073
tp3074
baa(lp3075
S'Comments'
p3076
ag13
(g14
g15
g16
g17
tp3077
Rp3078
(I1
(I11
tp3079
g53
I00
(lp3080
S'From new raw data'
p3081
aS'From new raw data'
p3082
aS'From new raw data'
p3083
aS'From new raw data'
p3084
aS'From new raw data'
p3085
aS'From new raw data'
p3086
aS'From new raw data'
p3087
aS'From new raw data'
p3088
aS'From new raw data'
p3089
aS'From new raw data'
p3090
aS'From new raw data'
p3091
aS'\x00\x00\x00\x00\x00\x00\x00\x00\x00\x00\x00'
p3092
g29
(g30
(I0
tp3093
g17
tp3094
Rp3095
(I1
(tg53
I00
(lp3096
g73
atp3097
b(g3076
NNVOther information from the published source or from NED that may be helpful in interpreting or qualifying the data.
p3098
g9
((lp3099
(lp3100
g39
aVmeta.note;comment
p3101
aatp3102
Rp3103
(lp3104
tp3105
tp3106
baatp3107
Rp3108
(dp3109
g703
VPublished and Homogenized [Frequency, Flux Density] Units
p3110
sg705
VPhotometric Data for ESO 289-???020
p3111
sg707
VNED_PhotometricData
p3112
stp3113
bsg710
g711
sg712
g713
(g21
(S'S14'
p3114
I0
I1
tp3115
Rp3116
(I3
S'|'
p3117
NNNI14
I1
I0
tp3118
bS'ESO 289- G 020'
p3119
tp3120
Rp3121
sg722
(lp3122
g713
(g91
S'\xf3\xe5\x05\xd8\xc7\xf4t@'
p3123
tp3124
Rp3125
ag713
(g91
S'\xa6a\xf8\x88\x98\xd6F\xc0'
p3126
tp3127
Rp3128
asa(dp3129
g2
F905.0
sg3
(lp3130
sg710
S'GGroup'
p3131
sg712
g713
(g21
(S'S14'
p3132
I0
I1
tp3133
Rp3134
(I3
S'|'
p3135
NNNI14
I1
I0
tp3136
bS'[TSK2008] 0352'
p3137
tp3138
Rp3139
sg722
(lp3140
g713
(g91
S'\xa5\xa0\xdbK\x9a\xf5t@'
p3141
tp3142
Rp3143
ag713
(g91
S'`YiR\n\x16G\xc0'
p3144
tp3145
Rp3146
asa(dp3147
g2
F706.0
sg3
g4
(g5
g6
Ntp3148
Rp3149
(g9
((lp3150
(lp3151
S'No.'
p3152
ag13
(g14
g15
g16
g17
tp3153
Rp3154
(I1
(I10
tp3155
g24
I00
S'\x01\x00\x00\x00\x02\x00\x00\x00\x03\x00\x00\x00\x04\x00\x00\x00\x05\x00\x00\x00\x06\x00\x00\x00\x07\x00\x00\x00\x08\x00\x00\x00\t\x00\x00\x00\n\x00\x00\x00'
p3156
S'\x00\x00\x00\x00\x00\x00\x00\x00\x00\x00'
p3157
g29
(g30
(I0
tp3158
g17
tp3159
Rp3160
(I1
(tg24
I00
S'?B\x0f\x00'
p3161
tp3162
b(g3152
NNVA sequential number of Photometry Measurement for this object, applicable to this list only.
p3163
g9
((lp3164
(lp3165
g39
aVmeta.number;phot.mag
p3166
aatp3167
Rp3168
(lp3169
tp3170
tp3171
baa(lp3172
S'Observed Passband'
p3173
ag13
(g14
g15
g16
g17
tp3174
Rp3175
(I1
(I10
tp3176
g53
I00
(lp3177
S'B (Johnson)'
p3178
aS'b_J'
p3179
aS'B_J'
p3180
aS'R (Cousins)'
p3181
ag65
aS'H{alpha} (CTIO)'
p3182
aS'H{alpha}+[NII]'
p3183
ag66
aS'HI 21cm line Parkes'
p3184
aS'HI line (Parkes)'
p3185
aS'\x00\x00\x00\x00\x00\x00\x00\x00\x00\x00'
p3186
g29
(g30
(I0
tp3187
g17
tp3188
Rp3189
(I1
(tg53
I00
(lp3190
g73
atp3191
b(g3173
NNVColloquial descriptions of the frequency or wavelength at which the data were collected, identifying the bandpass by name e.g., "V","1.4GHz", "6 cm", "HI", etc.
p3192
g9
((lp3193
(lp3194
g39
aVinstr.bandpass
p3195
aatp3196
Rp3197
(lp3198
tp3199
tp3200
baa(lp3201
S'Photometry Measurement'
p3202
ag13
(g14
g15
g16
g17
tp3203
Rp3204
(I1
(I10
tp3205
g91
I00
S'333333/@\x14\xaeG\xe1z\xd43@\xf9\x0f\xe9\xb7\xaf\x03.@\x1f\x85\xebQ\xb8\x1e.@\xaa\x82QI\x9d\xe0-@{\x14\xaeG\xe1z*\xc0)\\\x8f\xc2\xf5(*\xc0x\x9c\xa2#\xb9\xdc.@\xcd\xcc\xcc\xcc\xcc\xcc/@\xcd\xcc\xcc\xcc\xcc\xcc-@'
p3206
S'\x00\x00\x00\x00\x00\x00\x00\x00\x00\x00'
p3207
g29
(g30
(I0
tp3208
g17
tp3209
Rp3210
(I1
(tg91
I00
S'@\x8c\xb5x\x1d\xaf\x15D'
p3211
tp3212
b(g3202
NV{!r:>}
p3213
VThe published photometry or fluxes  for this point.
p3214
g9
((lp3215
(lp3216
g39
aVphot
p3217
aatp3218
Rp3219
(lp3220
tp3221
tp3222
baa(lp3223
S'Uncertainty'
p3224
ag13
(g14
g15
g16
g17
tp3225
Rp3226
(I1
(I10
tp3227
g53
I00
(lp3228
S'+/-0.17'
p3229
aS'+/-0.14'
p3230
ag121
aS'+/-0.19'
p3231
ag121
aS'+/-0.07'
p3232
aS'+/-0.06'
p3233
ag121
aS'+/-2.6'
p3234
ag121
aS'\x00\x00\x00\x00\x00\x00\x00\x00\x00\x00'
p3235
g29
(g30
(I0
tp3236
g17
tp3237
Rp3238
(I1
(tg53
I00
(lp3239
g73
atp3240
b(g3224
NNVThe published uncertainty for photometric data.
p3241
g9
((lp3242
(lp3243
g39
aVstat.error;phot
p3244
aatp3245
Rp3246
(lp3247
tp3248
tp3249
baa(lp3250
S'Units'
p3251
ag13
(g14
g15
g16
g17
tp3252
Rp3253
(I1
(I10
tp3254
g53
I00
(lp3255
S'mag'
p3256
aS'mag'
p3257
aS'mag'
p3258
aS'mag'
p3259
aS'mag'
p3260
aS'log(erg/cm^2^/s)'
p3261
aS'log(ergs/cm^2^/s)'
p3262
aS'mag'
p3263
aS'Jy km/s'
p3264
aS'Jy km s^-1^'
p3265
aS'\x00\x00\x00\x00\x00\x00\x00\x00\x00\x00'
p3266
g29
(g30
(I0
tp3267
g17
tp3268
Rp3269
(I1
(tg53
I00
(lp3270
g73
atp3271
b(g3251
NNVUnits of photometry measurement for this point.
p3272
g9
((lp3273
(lp3274
g39
aVmeta.unit;phot
p3275
aatp3276
Rp3277
(lp3278
tp3279
tp3280
baa(lp3281
S'Frequency'
p3282
ag13
(g14
g15
g16
g17
tp3283
Rp3284
(I1
(I10
tp3285
g91
I00
S'\x00\x80\xbcX\xedZ\x03C\x00\x80h\x8a\xe37\x02C\x00\x80h\x8a\xe37\x02C\x00\x00\x14\xdcK\x9a\xfaB\x00\x00\x14\xdcK\x9a\xfaB\x00\x00\x99\xaa9\xfa\xf9B\x00\x00H`\xac\xeb\xf9B\x00\x00\xeb\x05-\x8b\xf5B\x00\x00\x00\xc0\xde(\xd5A\x00\x00\x00\xc0\xde(\xd5A'
p3286
S'\x00\x00\x00\x00\x00\x00\x00\x00\x00\x00'
p3287
g29
(g30
(I0
tp3288
g17
tp3289
Rp3290
(I1
(tg91
I00
S'@\x8c\xb5x\x1d\xaf\x15D'
p3291
tp3292
b(g3282
g186
V{!r:>}
p3293
VThe frequency, wavelength, or photometric passband, in absolute units as calculated by NED
p3294
g9
((lp3295
(lp3296
g39
aVem.freq
p3297
aatp3298
Rp3299
(lp3300
tp3301
tp3302
baa(lp3303
S'NED Photometry Measurement'
p3304
ag13
(g14
g15
g16
g17
tp3305
Rp3306
(I1
(I10
tp3307
g91
I00
S'n\xa3\x01\xbc\x05\x12d?*B\xa0\xe9\xdb8\x08?X\x1c\xce\xfcj\x0ep?I\x80\x9aZ\xb6\xd6g?\xa2\x97Q,\xb7\xb4j?\x00\x00\x00\x98\xa0k\xf5A\x00\x00\x00\x00\x92\xfe\xfeA1\xce\xdf\x84B\x04\\?\x00\x00\x00\x00@I\xf2@\x00\x00\x00\x00\x000\xf1@'
p3308
S'\x00\x00\x00\x00\x00\x00\x00\x00\x00\x00'
p3309
g29
(g30
(I0
tp3310
g17
tp3311
Rp3312
(I1
(tg91
I00
S'@\x8c\xb5x\x1d\xaf\x15D'
p3313
tp3314
b(g3304
g260
V{!r:>}
p3315
VFlux/Photometric data for this point as transformed and stored by NED.
p3316
g9
((lp3317
(lp3318
g39
aVphot
p3319
aatp3320
Rp3321
(lp3322
tp3323
tp3324
baa(lp3325
S'NED Uncertainty'
p3326
ag13
(g14
g15
g16
g17
tp3327
Rp3328
(I1
(I10
tp3329
g53
I00
(lp3330
S'+/-4.16E-04'
p3331
aS'+/-6.36E-06'
p3332
ag121
aS'+/-5.57E-04'
p3333
ag121
aS'+/-9.28E+08'
p3334
aS'+/-1.15E+09'
p3335
ag121
aS'+/-1.22E+04'
p3336
ag121
aS'\x00\x00\x00\x00\x00\x00\x00\x00\x00\x00'
p3337
g29
(g30
(I0
tp3338
g17
tp3339
Rp3340
(I1
(tg53
I00
(lp3341
g73
atp3342
b(g3326
NNVPhotometric/Flux uncertainty as transformed and stored by NED.
p3343
g9
((lp3344
(lp3345
g39
aVstat.error;phot
p3346
aatp3347
Rp3348
(lp3349
tp3350
tp3351
baa(lp3352
S'NED Units'
p3353
ag13
(g14
g15
g16
g17
tp3354
Rp3355
(I1
(I10
tp3356
g53
I00
(lp3357
S'Jy'
p3358
aS'Jy'
p3359
aS'Jy'
p3360
aS'Jy'
p3361
aS'Jy'
p3362
aS'Jy-Hz'
p3363
aS'Jy-Hz'
p3364
aS'Jy'
p3365
aS'Jy-Hz'
p3366
aS'Jy-Hz'
p3367
aS'\x00\x00\x00\x00\x00\x00\x00\x00\x00\x00'
p3368
g29
(g30
(I0
tp3369
g17
tp3370
Rp3371
(I1
(tg53
I00
(lp3372
g73
atp3373
b(g3353
NNVAbsolute units of photometry measurement for this point.
p3374
g9
((lp3375
(lp3376
g39
aVmeta.unit;phot
p3377
aatp3378
Rp3379
(lp3380
tp3381
tp3382
baa(lp3383
S'Refcode'
p3384
ag13
(g14
g15
g16
g17
tp3385
Rp3386
(I1
(I10
tp3387
g53
I00
(lp3388
S'2005A&A...433..751M'
p3389
aS'1990MNRAS.243..692M'
p3390
aS'2005MNRAS.361...34D'
p3391
aS'2005A&A...433..751M'
p3392
aS'2005MNRAS.361...34D'
p3393
aS'2006ApJS..165..307M'
p3394
aS'2008ApJS..178..247K'
p3395
aS'2005MNRAS.361...34D'
p3396
aS'2004AJ....128...16K'
p3397
aS'2005MNRAS.361...34D'
p3398
aS'\x00\x00\x00\x00\x00\x00\x00\x00\x00\x00'
p3399
g29
(g30
(I0
tp3400
g17
tp3401
Rp3402
(I1
(tg53
I00
(lp3403
g73
atp3404
b(g3384
NNVThe NED 19-digit Bibliographic Reference code.
p3405
g9
((lp3406
(lp3407
g39
aVmeta.bib.bibcode
p3408
aatp3409
Rp3410
(lp3411
tp3412
tp3413
baa(lp3414
S'Significance'
p3415
ag13
(g14
g15
g16
g17
tp3416
Rp3417
(I1
(I10
tp3418
g53
I00
(lp3419
S'estimated error'
p3420
aS'rms uncertainty'
p3421
aS'no uncertainty reported'
p3422
aS'estimated error'
p3423
aS'no uncertainty reported'
p3424
aS'uncertainty'
p3425
aS'1 sigma'
p3426
aS'no uncertainty reported'
p3427
aS'uncertainty'
p3428
aS'no uncertainty reported'
p3429
aS'\x00\x00\x00\x00\x00\x00\x00\x00\x00\x00'
p3430
g29
(g30
(I0
tp3431
g17
tp3432
Rp3433
(I1
(tg53
I00
(lp3434
g73
atp3435
b(g3415
NNVType of uncertainty reported in the original publication
p3436
g9
((lp3437
(lp3438
g39
aVmeta.code.error
p3439
aatp3440
Rp3441
(lp3442
tp3443
tp3444
baa(lp3445
S'Published frequency'
p3446
ag13
(g14
g15
g16
g17
tp3447
Rp3448
(I1
(I10
tp3449
g53
I00
(lp3450
S'4400   A'
p3451
aS'4680      A'
p3452
aS'4680   A'
p3453
aS'6400   A'
p3454
aS'6400   A'
p3455
aS'6563   A'
p3456
aS'6573.5 A'
p3457
aS'7900   A'
p3458
aS'706   km s^-1^'
p3459
aS'706.7      km s^-1^'
p3460
aS'\x00\x00\x00\x00\x00\x00\x00\x00\x00\x00'
p3461
g29
(g30
(I0
tp3462
g17
tp3463
Rp3464
(I1
(tg53
I00
(lp3465
g73
atp3466
b(g3446
NNVWavelength or frequency  of observation as given in the original publication
p3467
g9
((lp3468
(lp3469
g39
aVmeta.ref;em.freq
p3470
aatp3471
Rp3472
(lp3473
tp3474
tp3475
baa(lp3476
S'Frequency Mode'
p3477
ag13
(g14
g15
g16
g17
tp3478
Rp3479
(I1
(I10
tp3480
g53
I00
(lp3481
S'Broad-band measurement'
p3482
aS'Broad-band measurement'
p3483
aS'Broad-band measurement'
p3484
aS'Broad-band measurement'
p3485
aS'Broad-band measurement'
p3486
aS'Line measurement; flux integrated over line'
p3487
aS'Line measurement; flux integrated over line; lines measured in emission'
p3488
aS'Broad-band measurement'
p3489
aS'Line measurement; flux integrated over line'
p3490
aS'Line measurement; flux integrated over line; lines measured in emission'
p3491
aS'\x00\x00\x00\x00\x00\x00\x00\x00\x00\x00'
p3492
g29
(g30
(I0
tp3493
g17
tp3494
Rp3495
(I1
(tg53
I00
(lp3496
g73
atp3497
b(g3477
NNVThe method(s) by which the data were collected, reduced, or derived, regarding the frequency or wavelength;
p3498
g9
((lp3499
(lp3500
g39
aVmeta.ref;em.freq;instr.setup
p3501
aatp3502
Rp3503
(lp3504
tp3505
tp3506
baa(lp3507
S'Coordinates Targeted'
p3508
ag13
(g14
g15
g16
g17
tp3509
Rp3510
(I1
(I10
tp3511
g53
I00
(lp3512
S'22 22 30.6 -48 24 16 (J2000)'
p3513
aS'221924.62 -483928.0 (B1950)'
p3514
aS'222230.2 -482412.9 (J2000)'
p3515
aS'22 22 30.6 -48 24 16 (J2000)'
p3516
aS'222230.2 -482412.9 (J2000)'
p3517
aS'22 22 29.8 -48 24 14 (J2000)'
p3518
aS'22 22 30.0 -48 24 18 (J2000)'
p3519
aS'222230.2 -482412.9 (J2000)'
p3520
aS'22 22 27 -48 24 28 (J2000)'
p3521
aS'222224.7 -482436. (J2000)'
p3522
aS'\x00\x00\x00\x00\x00\x00\x00\x00\x00\x00'
p3523
g29
(g30
(I0
tp3524
g17
tp3525
Rp3526
(I1
(tg53
I00
(lp3527
g73
atp3528
b(g3508
NNVThe position at which the measurements were taken, followed by the coordinate reference frame (e.g.,  013350.90 +303935.8 (J2000) in format HHMMSS.ss +DDMMSS.s (EQUINOX),  etc.).
p3529
g9
((lp3530
(lp3531
g39
aVpos
p3532
aatp3533
Rp3534
(lp3535
tp3536
tp3537
baa(lp3538
S'Spatial Mode'
p3539
ag13
(g14
g15
g16
g17
tp3540
Rp3541
(I1
(I10
tp3542
g53
I00
(lp3543
S'Total flux'
p3544
aS'Flux integrated from map'
p3545
aS'Flux in fixed aperture'
p3546
aS'Total flux'
p3547
aS'Flux in fixed aperture'
p3548
aS'Flux in fixed aperture'
p3549
aS'Flux integrated from map'
p3550
aS'Flux in fixed aperture'
p3551
aS'Flux integrated from map'
p3552
aS'Flux integrated from map'
p3553
aS'\x00\x00\x00\x00\x00\x00\x00\x00\x00\x00'
p3554
g29
(g30
(I0
tp3555
g17
tp3556
Rp3557
(I1
(tg53
I00
(lp3558
g73
atp3559
b(g3539
NNVThe method(s) by which the data were collected, reduced, or derived, regarding the spatially integrated flux
p3560
g9
((lp3561
(lp3562
g39
aVphot.flux;instr.setup
p3563
aatp3564
Rp3565
(lp3566
tp3567
tp3568
baa(lp3569
S'Qualifiers'
p3570
ag13
(g14
g15
g16
g17
tp3571
Rp3572
(I1
(I10
tp3573
g53
I00
(lp3574
g121
ag121
ag121
ag121
ag121
aS'Corrected for [N II] contamination'
p3575
ag121
ag121
ag121
ag121
aS'\x00\x00\x00\x00\x00\x00\x00\x00\x00\x00'
p3576
g29
(g30
(I0
tp3577
g17
tp3578
Rp3579
(I1
(tg53
I00
(lp3580
g73
atp3581
b(g3570
NNVSelf-explanatory notes pertaining to the history of the data or adjustments to the data or hanges introduced by NED
p3582
g9
((lp3583
(lp3584
g39
aVmeta.note;instr.setup
p3585
aatp3586
Rp3587
(lp3588
tp3589
tp3590
baa(lp3591
S'Comments'
p3592
ag13
(g14
g15
g16
g17
tp3593
Rp3594
(I1
(I10
tp3595
g53
I00
(lp3596
S'From new raw data'
p3597
aS'From new raw data'
p3598
aS'From new raw data'
p3599
aS'From new raw data'
p3600
aS'From new raw data'
p3601
aS'From new raw data; Extinction-corrected for Milky Way'
p3602
aS'From new raw data'
p3603
aS'From new raw data'
p3604
aS'From new raw data'
p3605
aS'Averaged from previously published data'
p3606
aS'\x00\x00\x00\x00\x00\x00\x00\x00\x00\x00'
p3607
g29
(g30
(I0
tp3608
g17
tp3609
Rp3610
(I1
(tg53
I00
(lp3611
g73
atp3612
b(g3592
NNVOther information from the published source or from NED that may be helpful in interpreting or qualifying the data.
p3613
g9
((lp3614
(lp3615
g39
aVmeta.note;comment
p3616
aatp3617
Rp3618
(lp3619
tp3620
tp3621
baatp3622
Rp3623
(dp3624
g703
VPublished and Homogenized [Frequency, Flux Density] Units
p3625
sg705
VPhotometric Data for ESO 238-???005
p3626
sg707
VNED_PhotometricData
p3627
stp3628
bsg710
g711
sg712
g713
(g21
(S'S14'
p3629
I0
I1
tp3630
Rp3631
(I3
S'|'
p3632
NNNI14
I1
I0
tp3633
bS'ESO 238- G 005'
p3634
tp3635
Rp3636
sg722
(lp3637
g713
(g91
S'\xb8\x92\x1d\x1b\x01\xfat@'
p3638
tp3639
Rp3640
ag713
(g91
S'@\x13a\xc3\xd33H\xc0'
p3641
tp3642
Rp3643
asa(dp3644
g2
F1027.0
sg3
g4
(g5
g6
Ntp3645
Rp3646
(g9
((lp3647
(lp3648
S'No.'
p3649
ag13
(g14
g15
g16
g17
tp3650
Rp3651
(I1
(I5
tp3652
g24
I00
S'\x01\x00\x00\x00\x02\x00\x00\x00\x03\x00\x00\x00\x04\x00\x00\x00\x05\x00\x00\x00'
p3653
S'\x00\x00\x00\x00\x00'
p3654
g29
(g30
(I0
tp3655
g17
tp3656
Rp3657
(I1
(tg24
I00
S'?B\x0f\x00'
p3658
tp3659
b(g3649
NNVA sequential number of Photometry Measurement for this object, applicable to this list only.
p3660
g9
((lp3661
(lp3662
g39
aVmeta.number;phot.mag
p3663
aatp3664
Rp3665
(lp3666
tp3667
tp3668
baa(lp3669
S'Observed Passband'
p3670
ag13
(g14
g15
g16
g17
tp3671
Rp3672
(I1
(I5
tp3673
g53
I00
(lp3674
S'FUV (GALEX) AB'
p3675
aS'FUV (GALEX) AB'
p3676
aS'NUV (GALEX) AB'
p3677
aS'NUV (GALEX) AB'
p3678
aS'b_J'
p3679
aS'\x00\x00\x00\x00\x00'
p3680
g29
(g30
(I0
tp3681
g17
tp3682
Rp3683
(I1
(tg53
I00
(lp3684
g73
atp3685
b(g3670
NNVColloquial descriptions of the frequency or wavelength at which the data were collected, identifying the bandpass by name e.g., "V","1.4GHz", "6 cm", "HI", etc.
p3686
g9
((lp3687
(lp3688
g39
aVinstr.bandpass
p3689
aatp3690
Rp3691
(lp3692
tp3693
tp3694
baa(lp3695
S'Photometry Measurement'
p3696
ag13
(g14
g15
g16
g17
tp3697
Rp3698
(I1
(I5
tp3699
g91
I00
S'N\xd1\x91\\\xfeC4@\xe1z\x14\xaeG\xe15@\xb0\x03\xe7\x8c(\x9d5@\xe9&1\x08\xac\x1c4@\x8f\xc2\xf5(\\\x8f2@'
p3700
S'\x00\x00\x00\x00\x00'
p3701
g29
(g30
(I0
tp3702
g17
tp3703
Rp3704
(I1
(tg91
I00
S'@\x8c\xb5x\x1d\xaf\x15D'
p3705
tp3706
b(g3696
NV{!r:>}
p3707
VThe published photometry or fluxes  for this point.
p3708
g9
((lp3709
(lp3710
g39
aVphot
p3711
aatp3712
Rp3713
(lp3714
tp3715
tp3716
baa(lp3717
S'Uncertainty'
p3718
ag13
(g14
g15
g16
g17
tp3719
Rp3720
(I1
(I5
tp3721
g53
I00
(lp3722
S'+/-0.176168'
p3723
aS'+/-0.426554'
p3724
aS'+/-0.219777'
p3725
aS'+/-0.122973'
p3726
aS'+/-0.12'
p3727
aS'\x00\x00\x00\x00\x00'
p3728
g29
(g30
(I0
tp3729
g17
tp3730
Rp3731
(I1
(tg53
I00
(lp3732
g73
atp3733
b(g3718
NNVThe published uncertainty for photometric data.
p3734
g9
((lp3735
(lp3736
g39
aVstat.error;phot
p3737
aatp3738
Rp3739
(lp3740
tp3741
tp3742
baa(lp3743
S'Units'
p3744
ag13
(g14
g15
g16
g17
tp3745
Rp3746
(I1
(I5
tp3747
g53
I00
(lp3748
S'mag'
p3749
aS'mag'
p3750
aS'mag'
p3751
aS'mag'
p3752
aS'mag'
p3753
aS'\x00\x00\x00\x00\x00'
p3754
g29
(g30
(I0
tp3755
g17
tp3756
Rp3757
(I1
(tg53
I00
(lp3758
g73
atp3759
b(g3744
NNVUnits of photometry measurement for this point.
p3760
g9
((lp3761
(lp3762
g39
aVmeta.unit;phot
p3763
aatp3764
Rp3765
(lp3766
tp3767
tp3768
baa(lp3769
S'Frequency'
p3770
ag13
(g14
g15
g16
g17
tp3771
Rp3772
(I1
(I5
tp3773
g91
I00
S'\x00\x80?\x05\x0f\xb6\x1bC\x00\x80?\x05\x0f\xb6\x1bC\x00\x80\n\x1f\xfeT\x12C\x00\x80\n\x1f\xfeT\x12C\x00\x80h\x8a\xe37\x02C'
p3774
S'\x00\x00\x00\x00\x00'
p3775
g29
(g30
(I0
tp3776
g17
tp3777
Rp3778
(I1
(tg91
I00
S'@\x8c\xb5x\x1d\xaf\x15D'
p3779
tp3780
b(g3770
g186
V{!r:>}
p3781
VThe frequency, wavelength, or photometric passband, in absolute units as calculated by NED
p3782
g9
((lp3783
(lp3784
g39
aVem.freq
p3785
aatp3786
Rp3787
(lp3788
tp3789
tp3790
baa(lp3791
S'NED Photometry Measurement'
p3792
ag13
(g14
g15
g16
g17
tp3793
Rp3794
(I1
(I5
tp3795
g91
I00
S'tR\xa9#\x91\xc7\xfd>\x1b\xf8\x0f\xf1(\xf8\xda>ml\xd9\xce\xb57\xe1>J\xe0 kW2\x01?\x86\xc6\x13A\x9c\x87#?'
p3796
S'\x00\x00\x00\x00\x00'
p3797
g29
(g30
(I0
tp3798
g17
tp3799
Rp3800
(I1
(tg91
I00
S'@\x8c\xb5x\x1d\xaf\x15D'
p3801
tp3802
b(g3792
g260
V{!r:>}
p3803
VFlux/Photometric data for this point as transformed and stored by NED.
p3804
g9
((lp3805
(lp3806
g39
aVphot
p3807
aatp3808
Rp3809
(lp3810
tp3811
tp3812
baa(lp3813
S'NED Uncertainty'
p3814
ag13
(g14
g15
g16
g17
tp3815
Rp3816
(I1
(I5
tp3817
g53
I00
(lp3818
S'+/-4.61E-06'
p3819
aS'+/-2.52E-06'
p3820
aS'+/-1.66E-06'
p3821
aS'+/-3.71E-06'
p3822
aS'+/-1.74E-05'
p3823
aS'\x00\x00\x00\x00\x00'
p3824
g29
(g30
(I0
tp3825
g17
tp3826
Rp3827
(I1
(tg53
I00
(lp3828
g73
atp3829
b(g3814
NNVPhotometric/Flux uncertainty as transformed and stored by NED.
p3830
g9
((lp3831
(lp3832
g39
aVstat.error;phot
p3833
aatp3834
Rp3835
(lp3836
tp3837
tp3838
baa(lp3839
S'NED Units'
p3840
ag13
(g14
g15
g16
g17
tp3841
Rp3842
(I1
(I5
tp3843
g53
I00
(lp3844
S'Jy'
p3845
aS'Jy'
p3846
aS'Jy'
p3847
aS'Jy'
p3848
aS'Jy'
p3849
aS'\x00\x00\x00\x00\x00'
p3850
g29
(g30
(I0
tp3851
g17
tp3852
Rp3853
(I1
(tg53
I00
(lp3854
g73
atp3855
b(g3840
NNVAbsolute units of photometry measurement for this point.
p3856
g9
((lp3857
(lp3858
g39
aVmeta.unit;phot
p3859
aatp3860
Rp3861
(lp3862
tp3863
tp3864
baa(lp3865
S'Refcode'
p3866
ag13
(g14
g15
g16
g17
tp3867
Rp3868
(I1
(I5
tp3869
g53
I00
(lp3870
S'2012GASC..C...0000S'
p3871
aS'2012GASC..C...0000S'
p3872
aS'2012GASC..C...0000S'
p3873
aS'2012GASC..C...0000S'
p3874
aS'1990MNRAS.243..692M'
p3875
aS'\x00\x00\x00\x00\x00'
p3876
g29
(g30
(I0
tp3877
g17
tp3878
Rp3879
(I1
(tg53
I00
(lp3880
g73
atp3881
b(g3866
NNVThe NED 19-digit Bibliographic Reference code.
p3882
g9
((lp3883
(lp3884
g39
aVmeta.bib.bibcode
p3885
aatp3886
Rp3887
(lp3888
tp3889
tp3890
baa(lp3891
S'Significance'
p3892
ag13
(g14
g15
g16
g17
tp3893
Rp3894
(I1
(I5
tp3895
g53
I00
(lp3896
S'uncertainty'
p3897
aS'uncertainty'
p3898
aS'uncertainty'
p3899
aS'uncertainty'
p3900
aS'rms uncertainty'
p3901
aS'\x00\x00\x00\x00\x00'
p3902
g29
(g30
(I0
tp3903
g17
tp3904
Rp3905
(I1
(tg53
I00
(lp3906
g73
atp3907
b(g3892
NNVType of uncertainty reported in the original publication
p3908
g9
((lp3909
(lp3910
g39
aVmeta.code.error
p3911
aatp3912
Rp3913
(lp3914
tp3915
tp3916
baa(lp3917
S'Published frequency'
p3918
ag13
(g14
g15
g16
g17
tp3919
Rp3920
(I1
(I5
tp3921
g53
I00
(lp3922
S'1538.6     A'
p3923
aS'1538.6     A'
p3924
aS'2315.7     A'
p3925
aS'2315.7     A'
p3926
aS'4680      A'
p3927
aS'\x00\x00\x00\x00\x00'
p3928
g29
(g30
(I0
tp3929
g17
tp3930
Rp3931
(I1
(tg53
I00
(lp3932
g73
atp3933
b(g3918
NNVWavelength or frequency  of observation as given in the original publication
p3934
g9
((lp3935
(lp3936
g39
aVmeta.ref;em.freq
p3937
aatp3938
Rp3939
(lp3940
tp3941
tp3942
baa(lp3943
S'Frequency Mode'
p3944
ag13
(g14
g15
g16
g17
tp3945
Rp3946
(I1
(I5
tp3947
g53
I00
(lp3948
S'Broad-band measurement'
p3949
aS'Broad-band measurement'
p3950
aS'Broad-band measurement'
p3951
aS'Broad-band measurement'
p3952
aS'Broad-band measurement'
p3953
aS'\x00\x00\x00\x00\x00'
p3954
g29
(g30
(I0
tp3955
g17
tp3956
Rp3957
(I1
(tg53
I00
(lp3958
g73
atp3959
b(g3944
NNVThe method(s) by which the data were collected, reduced, or derived, regarding the frequency or wavelength;
p3960
g9
((lp3961
(lp3962
g39
aVmeta.ref;em.freq;instr.setup
p3963
aatp3964
Rp3965
(lp3966
tp3967
tp3968
baa(lp3969
S'Coordinates Targeted'
p3970
ag13
(g14
g15
g16
g17
tp3971
Rp3972
(I1
(I5
tp3973
g53
I00
(lp3974
S'335.85400145090 -28.20963991178 (J2000)'
p3975
aS'335.85400145090 -28.20963991178 (J2000)'
p3976
aS'335.85400145090 -28.20963991178 (J2000)'
p3977
aS'335.85400145090 -28.20963991178 (J2000)'
p3978
aS'222036.26 -282748.5 (B1950)'
p3979
aS'\x00\x00\x00\x00\x00'
p3980
g29
(g30
(I0
tp3981
g17
tp3982
Rp3983
(I1
(tg53
I00
(lp3984
g73
atp3985
b(g3970
NNVThe position at which the measurements were taken, followed by the coordinate reference frame (e.g.,  013350.90 +303935.8 (J2000) in format HHMMSS.ss +DDMMSS.s (EQUINOX),  etc.).
p3986
g9
((lp3987
(lp3988
g39
aVpos
p3989
aatp3990
Rp3991
(lp3992
tp3993
tp3994
baa(lp3995
S'Spatial Mode'
p3996
ag13
(g14
g15
g16
g17
tp3997
Rp3998
(I1
(I5
tp3999
g53
I00
(lp4000
S'Flux integrated from map'
p4001
aS'Flux in fixed aperture'
p4002
aS'Flux in fixed aperture'
p4003
aS'Flux integrated from map'
p4004
aS'Flux integrated from map'
p4005
aS'\x00\x00\x00\x00\x00'
p4006
g29
(g30
(I0
tp4007
g17
tp4008
Rp4009
(I1
(tg53
I00
(lp4010
g73
atp4011
b(g3996
NNVThe method(s) by which the data were collected, reduced, or derived, regarding the spatially integrated flux
p4012
g9
((lp4013
(lp4014
g39
aVphot.flux;instr.setup
p4015
aatp4016
Rp4017
(lp4018
tp4019
tp4020
baa(lp4021
S'Qualifiers'
p4022
ag13
(g14
g15
g16
g17
tp4023
Rp4024
(I1
(I5
tp4025
g53
I00
(lp4026
S'Kron flux in elliptical aperture'
p4027
aS'Flux in 7.5 arcsec diameter aperture'
p4028
aS'Flux in 7.5 arcsec diameter aperture'
p4029
aS'Kron flux in elliptical aperture'
p4030
ag121
aS'\x00\x00\x00\x00\x00'
p4031
g29
(g30
(I0
tp4032
g17
tp4033
Rp4034
(I1
(tg53
I00
(lp4035
g73
atp4036
b(g4022
NNVSelf-explanatory notes pertaining to the history of the data or adjustments to the data or hanges introduced by NED
p4037
g9
((lp4038
(lp4039
g39
aVmeta.note;instr.setup
p4040
aatp4041
Rp4042
(lp4043
tp4044
tp4045
baa(lp4046
S'Comments'
p4047
ag13
(g14
g15
g16
g17
tp4048
Rp4049
(I1
(I5
tp4050
g53
I00
(lp4051
S'From new raw data'
p4052
aS'From new raw data'
p4053
aS'From new raw data'
p4054
aS'From new raw data'
p4055
aS'From new raw data'
p4056
aS'\x00\x00\x00\x00\x00'
p4057
g29
(g30
(I0
tp4058
g17
tp4059
Rp4060
(I1
(tg53
I00
(lp4061
g73
atp4062
b(g4047
NNVOther information from the published source or from NED that may be helpful in interpreting or qualifying the data.
p4063
g9
((lp4064
(lp4065
g39
aVmeta.note;comment
p4066
aatp4067
Rp4068
(lp4069
tp4070
tp4071
baatp4072
Rp4073
(dp4074
g703
VPublished and Homogenized [Frequency, Flux Density] Units
p4075
sg705
VPhotometric Data for GALEXASC J222324.96-281234.7
p4076
sg707
VNED_PhotometricData
p4077
stp4078
bsg710
g711
sg712
g713
(g21
(S'S28'
p4079
I0
I1
tp4080
Rp4081
(I3
S'|'
p4082
NNNI28
I1
I0
tp4083
bS'GALEXASC J222324.96-281234.7'
p4084
tp4085
Rp4086
sg722
(lp4087
g713
(g91
S'a2U0\xaa\xfdt@'
p4088
tp4089
Rp4090
ag713
(g91
S'v7Ou\xc85<\xc0'
p4091
tp4092
Rp4093
asa(dp4094
g2
F1025.0
sg3
g4
(g5
g6
Ntp4095
Rp4096
(g9
((lp4097
(lp4098
S'No.'
p4099
ag13
(g14
g15
g16
g17
tp4100
Rp4101
(I1
(I14
tp4102
g24
I00
S'\x01\x00\x00\x00\x02\x00\x00\x00\x03\x00\x00\x00\x04\x00\x00\x00\x05\x00\x00\x00\x06\x00\x00\x00\x07\x00\x00\x00\x08\x00\x00\x00\t\x00\x00\x00\n\x00\x00\x00\x0b\x00\x00\x00\x0c\x00\x00\x00\r\x00\x00\x00\x0e\x00\x00\x00'
p4103
S'\x00\x00\x00\x00\x00\x00\x00\x00\x00\x00\x00\x00\x00\x00'
p4104
g29
(g30
(I0
tp4105
g17
tp4106
Rp4107
(I1
(tg24
I00
S'?B\x0f\x00'
p4108
tp4109
b(g4099
NNVA sequential number of Photometry Measurement for this object, applicable to this list only.
p4110
g9
((lp4111
(lp4112
g39
aVmeta.number;phot.mag
p4113
aatp4114
Rp4115
(lp4116
tp4117
tp4118
baa(lp4119
S'Observed Passband'
p4120
ag13
(g14
g15
g16
g17
tp4121
Rp4122
(I1
(I14
tp4123
g53
I00
(lp4124
S'FUV (GALEX) AB'
p4125
aS'FUV (GALEX) AB'
p4126
aS'NUV (GALEX) AB'
p4127
aS'NUV (GALEX) AB'
p4128
aS'b_J'
p4129
aS'J_14arcsec (2MASS)'
p4130
aS'J'
p4131
ag4131
aS'H_14arcsec (2MASS)'
p4132
aS'H'
p4133
ag4133
aS'K_s'
p4134
aS'K_s'
p4135
aS'K_s_14arcsec (2MASS)'
p4136
aS'\x00\x00\x00\x00\x00\x00\x00\x00\x00\x00\x00\x00\x00\x00'
p4137
g29
(g30
(I0
tp4138
g17
tp4139
Rp4140
(I1
(tg53
I00
(lp4141
g73
atp4142
b(g4120
NNVColloquial descriptions of the frequency or wavelength at which the data were collected, identifying the bandpass by name e.g., "V","1.4GHz", "6 cm", "HI", etc.
p4143
g9
((lp4144
(lp4145
g39
aVinstr.bandpass
p4146
aatp4147
Rp4148
(lp4149
tp4150
tp4151
baa(lp4152
S'Photometry Measurement'
p4153
ag13
(g14
g15
g16
g17
tp4154
Rp4155
(I1
(I14
tp4156
g91
I00
S'\x00\x00\x00\x00\x00\x00\xf8\x7fk\x9aw\x9c\xa2\x837@\xe5\xf2\x1f\xd2o\xff5@\xb6\x84|\xd0\xb3\xa96@R\xb8\x1e\x85\xeb\x913@\n\xd7\xa3p=J/@\xd9\xce\xf7S\xe3%/@\x1f\x85\xebQ\xb8\x9e/@\x96C\x8bl\xe7;-@\xd7\xa3p=\n\x97-@q=\n\xd7\xa3\xb0,@P\x8d\x97n\x12C+@\xf8S\xe3\xa5\x9b\x84+@\x1f\x85\xebQ\xb8^+@'
p4157
S'\x01\x00\x00\x00\x00\x00\x00\x00\x00\x00\x00\x00\x00\x00'
p4158
g29
(g30
(I0
tp4159
g17
tp4160
Rp4161
(I1
(tg91
I00
S'@\x8c\xb5x\x1d\xaf\x15D'
p4162
tp4163
b(g4153
NV{!r:>}
p4164
VThe published photometry or fluxes  for this point.
p4165
g9
((lp4166
(lp4167
g39
aVphot
p4168
aatp4169
Rp4170
(lp4171
tp4172
tp4173
baa(lp4174
S'Uncertainty'
p4175
ag13
(g14
g15
g16
g17
tp4176
Rp4177
(I1
(I14
tp4178
g53
I00
(lp4179
S'>21.7925'
p4180
aS'+/-0.856018'
p4181
aS'+/-0.349012'
p4182
aS'+/-0.391951'
p4183
aS'+/-0.14'
p4184
aS'+/-0.176'
p4185
aS'+/-0.226'
p4186
aS'+/-0.147'
p4187
aS'+/-0.177'
p4188
aS'+/-0.149'
p4189
aS'+/-0.184'
p4190
aS'+/-0.160'
p4191
aS'+/-0.094'
p4192
aS'+/-0.122'
p4193
aS'\x00\x00\x00\x00\x00\x00\x00\x00\x00\x00\x00\x00\x00\x00'
p4194
g29
(g30
(I0
tp4195
g17
tp4196
Rp4197
(I1
(tg53
I00
(lp4198
g73
atp4199
b(g4175
NNVThe published uncertainty for photometric data.
p4200
g9
((lp4201
(lp4202
g39
aVstat.error;phot
p4203
aatp4204
Rp4205
(lp4206
tp4207
tp4208
baa(lp4209
S'Units'
p4210
ag13
(g14
g15
g16
g17
tp4211
Rp4212
(I1
(I14
tp4213
g53
I00
(lp4214
S'mag'
p4215
aS'mag'
p4216
aS'mag'
p4217
aS'mag'
p4218
aS'mag'
p4219
aS'mag'
p4220
aS'mag'
p4221
aS'mag'
p4222
aS'mag'
p4223
aS'mag'
p4224
aS'mag'
p4225
aS'mag'
p4226
aS'mag'
p4227
aS'mag'
p4228
aS'\x00\x00\x00\x00\x00\x00\x00\x00\x00\x00\x00\x00\x00\x00'
p4229
g29
(g30
(I0
tp4230
g17
tp4231
Rp4232
(I1
(tg53
I00
(lp4233
g73
atp4234
b(g4210
NNVUnits of photometry measurement for this point.
p4235
g9
((lp4236
(lp4237
g39
aVmeta.unit;phot
p4238
aatp4239
Rp4240
(lp4241
tp4242
tp4243
baa(lp4244
S'Frequency'
p4245
ag13
(g14
g15
g16
g17
tp4246
Rp4247
(I1
(I14
tp4248
g91
I00
S'\x00\x80?\x05\x0f\xb6\x1bC\x00\x80?\x05\x0f\xb6\x1bC\x00\x80\n\x1f\xfeT\x12C\x00\x80\n\x1f\xfeT\x12C\x00\x80h\x8a\xe37\x02C\x00\x00\xe0W\xebH\xebB\x00\x00\xe0W\xebH\xebB\x00\x00\xe0W\xebH\xebB\x00\x00,\xab\xe5\xb0\xe4B\x00\x00,\xab\xe5\xb0\xe4B\x00\x00,\xab\xe5\xb0\xe4B\x00\x00\xa8>\xa8`\xdfB\x00\x00\xa8>\xa8`\xdfB\x00\x00\xa8>\xa8`\xdfB'
p4249
S'\x00\x00\x00\x00\x00\x00\x00\x00\x00\x00\x00\x00\x00\x00'
p4250
g29
(g30
(I0
tp4251
g17
tp4252
Rp4253
(I1
(tg91
I00
S'@\x8c\xb5x\x1d\xaf\x15D'
p4254
tp4255
b(g4245
g186
V{!r:>}
p4256
VThe frequency, wavelength, or photometric passband, in absolute units as calculated by NED
p4257
g9
((lp4258
(lp4259
g39
aVem.freq
p4260
aatp4261
Rp4262
(lp4263
tp4264
tp4265
baa(lp4266
S'NED Photometry Measurement'
p4267
ag13
(g14
g15
g16
g17
tp4268
Rp4269
(I1
(I14
tp4270
g91
I00
S"\x00\x00\x00\x00\x00\x00\xf8\x7f\xa9<\xb2\xa0\xcd\xfd\xb7>\x07\xb6\xe7\x85}3\xd8>s[\x8d\xb2\x9fA\xca>\xf5Rg\xa4\x94\xc6\x0e?TUh \x96\xcdL?4Lm\xa9\x83\xbcN?\xccE|'f\xbdH?\xb2c#\x10\xaf\xebW?\xa9M\x9c\xdc\xefPT?O;\xfc5Y\xa3^?U\xc1\xa8\xa4N@c?\xac\xa8\xc14\x0c\x1fa?\xd2\xfb\xc6\xd7\x9eYb?"
p4271
S'\x01\x00\x00\x00\x00\x00\x00\x00\x00\x00\x00\x00\x00\x00'
p4272
g29
(g30
(I0
tp4273
g17
tp4274
Rp4275
(I1
(tg91
I00
S'@\x8c\xb5x\x1d\xaf\x15D'
p4276
tp4277
b(g4267
g260
V{!r:>}
p4278
VFlux/Photometric data for this point as transformed and stored by NED.
p4279
g9
((lp4280
(lp4281
g39
aVphot
p4282
aatp4283
Rp4284
(lp4285
tp4286
tp4287
baa(lp4288
S'NED Uncertainty'
p4289
ag13
(g14
g15
g16
g17
tp4290
Rp4291
(I1
(I14
tp4292
g53
I00
(lp4293
S'6.97E-06'
p4294
aS'+/-1.12E-06'
p4295
aS'+/-1.85E-06'
p4296
aS'+/-1.13E-06'
p4297
aS'+/-8.08E-06'
p4298
aS'+/-1.55E-04'
p4299
aS'+/-2.17E-04'
p4300
aS'+/-1.09E-04'
p4301
aS'+/-2.58E-04'
p4302
aS'+/-1.82E-04'
p4303
aS'+/-3.46E-04'
p4304
aS'+/-3.74E-04'
p4305
aS'+/-1.89E-04'
p4306
aS'+/-2.66E-04'
p4307
aS'\x00\x00\x00\x00\x00\x00\x00\x00\x00\x00\x00\x00\x00\x00'
p4308
g29
(g30
(I0
tp4309
g17
tp4310
Rp4311
(I1
(tg53
I00
(lp4312
g73
atp4313
b(g4289
NNVPhotometric/Flux uncertainty as transformed and stored by NED.
p4314
g9
((lp4315
(lp4316
g39
aVstat.error;phot
p4317
aatp4318
Rp4319
(lp4320
tp4321
tp4322
baa(lp4323
S'NED Units'
p4324
ag13
(g14
g15
g16
g17
tp4325
Rp4326
(I1
(I14
tp4327
g53
I00
(lp4328
S'Jy'
p4329
aS'Jy'
p4330
aS'Jy'
p4331
aS'Jy'
p4332
aS'Jy'
p4333
aS'Jy'
p4334
aS'Jy'
p4335
aS'Jy'
p4336
aS'Jy'
p4337
aS'Jy'
p4338
aS'Jy'
p4339
aS'Jy'
p4340
aS'Jy'
p4341
aS'Jy'
p4342
aS'\x00\x00\x00\x00\x00\x00\x00\x00\x00\x00\x00\x00\x00\x00'
p4343
g29
(g30
(I0
tp4344
g17
tp4345
Rp4346
(I1
(tg53
I00
(lp4347
g73
atp4348
b(g4324
NNVAbsolute units of photometry measurement for this point.
p4349
g9
((lp4350
(lp4351
g39
aVmeta.unit;phot
p4352
aatp4353
Rp4354
(lp4355
tp4356
tp4357
baa(lp4358
S'Refcode'
p4359
ag13
(g14
g15
g16
g17
tp4360
Rp4361
(I1
(I14
tp4362
g53
I00
(lp4363
S'2012GASC..C...0000S'
p4364
aS'2012GASC..C...0000S'
p4365
aS'2012GASC..C...0000S'
p4366
aS'2012GASC..C...0000S'
p4367
aS'1990MNRAS.243..692M'
p4368
aS'20032MASX.C.......:'
p4369
aS'20032MASX.C.......:'
p4370
aS'20032MASX.C.......:'
p4371
aS'20032MASX.C.......:'
p4372
aS'20032MASX.C.......:'
p4373
aS'20032MASX.C.......:'
p4374
aS'20032MASX.C.......:'
p4375
aS'20032MASX.C.......:'
p4376
aS'20032MASX.C.......:'
p4377
aS'\x00\x00\x00\x00\x00\x00\x00\x00\x00\x00\x00\x00\x00\x00'
p4378
g29
(g30
(I0
tp4379
g17
tp4380
Rp4381
(I1
(tg53
I00
(lp4382
g73
atp4383
b(g4359
NNVThe NED 19-digit Bibliographic Reference code.
p4384
g9
((lp4385
(lp4386
g39
aVmeta.bib.bibcode
p4387
aatp4388
Rp4389
(lp4390
tp4391
tp4392
baa(lp4393
S'Significance'
p4394
ag13
(g14
g15
g16
g17
tp4395
Rp4396
(I1
(I14
tp4397
g53
I00
(lp4398
S'3 sigma'
p4399
aS'uncertainty'
p4400
aS'uncertainty'
p4401
aS'uncertainty'
p4402
aS'rms uncertainty'
p4403
aS'1 sigma uncert.'
p4404
aS'1 sigma uncert.'
p4405
aS'1 sigma uncert.'
p4406
aS'1 sigma uncert.'
p4407
aS'1 sigma uncert.'
p4408
aS'1 sigma uncert.'
p4409
aS'1 sigma uncert.'
p4410
aS'1 sigma uncert.'
p4411
aS'1 sigma uncert.'
p4412
aS'\x00\x00\x00\x00\x00\x00\x00\x00\x00\x00\x00\x00\x00\x00'
p4413
g29
(g30
(I0
tp4414
g17
tp4415
Rp4416
(I1
(tg53
I00
(lp4417
g73
atp4418
b(g4394
NNVType of uncertainty reported in the original publication
p4419
g9
((lp4420
(lp4421
g39
aVmeta.code.error
p4422
aatp4423
Rp4424
(lp4425
tp4426
tp4427
baa(lp4428
S'Published frequency'
p4429
ag13
(g14
g15
g16
g17
tp4430
Rp4431
(I1
(I14
tp4432
g53
I00
(lp4433
S'1538.6     A'
p4434
aS'1538.6     A'
p4435
aS'2315.7     A'
p4436
aS'2315.7     A'
p4437
aS'4680      A'
p4438
aS'1.25      microns'
p4439
aS'1.25      microns'
p4440
aS'1.25      microns'
p4441
aS'1.65      microns'
p4442
aS'1.65      microns'
p4443
aS'1.65      microns'
p4444
aS'2.17      microns'
p4445
aS'2.17      microns'
p4446
aS'2.17      microns'
p4447
aS'\x00\x00\x00\x00\x00\x00\x00\x00\x00\x00\x00\x00\x00\x00'
p4448
g29
(g30
(I0
tp4449
g17
tp4450
Rp4451
(I1
(tg53
I00
(lp4452
g73
atp4453
b(g4429
NNVWavelength or frequency  of observation as given in the original publication
p4454
g9
((lp4455
(lp4456
g39
aVmeta.ref;em.freq
p4457
aatp4458
Rp4459
(lp4460
tp4461
tp4462
baa(lp4463
S'Frequency Mode'
p4464
ag13
(g14
g15
g16
g17
tp4465
Rp4466
(I1
(I14
tp4467
g53
I00
(lp4468
S'Broad-band measurement'
p4469
aS'Broad-band measurement'
p4470
aS'Broad-band measurement'
p4471
aS'Broad-band measurement'
p4472
aS'Broad-band measurement'
p4473
aS'Broad-band measurement'
p4474
aS'Broad-band measurement'
p4475
aS'Broad-band measurement'
p4476
aS'Broad-band measurement'
p4477
aS'Broad-band measurement'
p4478
aS'Broad-band measurement'
p4479
aS'Broad-band measurement'
p4480
aS'Broad-band measurement'
p4481
aS'Broad-band measurement'
p4482
aS'\x00\x00\x00\x00\x00\x00\x00\x00\x00\x00\x00\x00\x00\x00'
p4483
g29
(g30
(I0
tp4484
g17
tp4485
Rp4486
(I1
(tg53
I00
(lp4487
g73
atp4488
b(g4464
NNVThe method(s) by which the data were collected, reduced, or derived, regarding the frequency or wavelength;
p4489
g9
((lp4490
(lp4491
g39
aVmeta.ref;em.freq;instr.setup
p4492
aatp4493
Rp4494
(lp4495
tp4496
tp4497
baa(lp4498
S'Coordinates Targeted'
p4499
ag13
(g14
g15
g16
g17
tp4500
Rp4501
(I1
(I14
tp4502
g53
I00
(lp4503
S'336.64050444431 -29.29108587648 (J2000)'
p4504
aS'336.64050444431 -29.29108587648 (J2000)'
p4505
aS'336.64050444431 -29.29108587648 (J2000)'
p4506
aS'336.64050444431 -29.29108587648 (J2000)'
p4507
aS'222344.70 -293246.3 (B1950)'
p4508
aS'222633.64 -291727.7 (J2000)'
p4509
aS'222633.64 -291727.7 (J2000)'
p4510
aS'222633.64 -291727.7 (J2000)'
p4511
aS'222633.64 -291727.7 (J2000)'
p4512
aS'222633.64 -291727.7 (J2000)'
p4513
aS'222633.64 -291727.7 (J2000)'
p4514
aS'222633.64 -291727.7 (J2000)'
p4515
aS'222633.64 -291727.7 (J2000)'
p4516
aS'222633.64 -291727.7 (J2000)'
p4517
aS'\x00\x00\x00\x00\x00\x00\x00\x00\x00\x00\x00\x00\x00\x00'
p4518
g29
(g30
(I0
tp4519
g17
tp4520
Rp4521
(I1
(tg53
I00
(lp4522
g73
atp4523
b(g4499
NNVThe position at which the measurements were taken, followed by the coordinate reference frame (e.g.,  013350.90 +303935.8 (J2000) in format HHMMSS.ss +DDMMSS.s (EQUINOX),  etc.).
p4524
g9
((lp4525
(lp4526
g39
aVpos
p4527
aatp4528
Rp4529
(lp4530
tp4531
tp4532
baa(lp4533
S'Spatial Mode'
p4534
ag13
(g14
g15
g16
g17
tp4535
Rp4536
(I1
(I14
tp4537
g53
I00
(lp4538
S'Flux integrated from map'
p4539
aS'Flux in fixed aperture'
p4540
aS'Flux integrated from map'
p4541
aS'Flux in fixed aperture'
p4542
aS'Flux integrated from map'
p4543
aS'Flux in fixed aperture'
p4544
aS'Flux in fixed aperture'
p4545
aS'Flux in fixed aperture'
p4546
aS'Flux in fixed aperture'
p4547
aS'Flux in fixed aperture'
p4548
aS'Flux in fixed aperture'
p4549
aS'Flux in fixed aperture'
p4550
aS'Flux in fixed aperture'
p4551
aS'Flux in fixed aperture'
p4552
aS'\x00\x00\x00\x00\x00\x00\x00\x00\x00\x00\x00\x00\x00\x00'
p4553
g29
(g30
(I0
tp4554
g17
tp4555
Rp4556
(I1
(tg53
I00
(lp4557
g73
atp4558
b(g4534
NNVThe method(s) by which the data were collected, reduced, or derived, regarding the spatially integrated flux
p4559
g9
((lp4560
(lp4561
g39
aVphot.flux;instr.setup
p4562
aatp4563
Rp4564
(lp4565
tp4566
tp4567
baa(lp4568
S'Qualifiers'
p4569
ag13
(g14
g15
g16
g17
tp4570
Rp4571
(I1
(I14
tp4572
g53
I00
(lp4573
S'upper limit inside NUV Kron aperture'
p4574
aS'Flux in 7.5 arcsec diameter aperture'
p4575
aS'Kron flux in elliptical aperture'
p4576
aS'Flux in 7.5 arcsec diameter aperture'
p4577
ag121
aS'14.0 x 14.0 arcsec aperture.'
p4578
ag121
aS'10.0 x   10.0 arcsec integration area.'
p4579
aS'14.0 x 14.0 arcsec aperture.'
p4580
aS'10.0 x   10.0 arcsec integration area.'
p4581
ag121
ag121
aS'10.0 x   10.0 arcsec integration area.'
p4582
aS'14.0 x 14.0 arcsec aperture.'
p4583
aS'\x00\x00\x00\x00\x00\x00\x00\x00\x00\x00\x00\x00\x00\x00'
p4584
g29
(g30
(I0
tp4585
g17
tp4586
Rp4587
(I1
(tg53
I00
(lp4588
g73
atp4589
b(g4569
NNVSelf-explanatory notes pertaining to the history of the data or adjustments to the data or hanges introduced by NED
p4590
g9
((lp4591
(lp4592
g39
aVmeta.note;instr.setup
p4593
aatp4594
Rp4595
(lp4596
tp4597
tp4598
baa(lp4599
S'Comments'
p4600
ag13
(g14
g15
g16
g17
tp4601
Rp4602
(I1
(I14
tp4603
g53
I00
(lp4604
S'From new raw data'
p4605
aS'From new raw data'
p4606
aS'From new raw data'
p4607
aS'From new raw data'
p4608
aS'From new raw data'
p4609
aS'From new raw data'
p4610
aS'From new raw data'
p4611
aS'From new raw data'
p4612
aS'From new raw data'
p4613
aS'From new raw data'
p4614
aS'From new raw data'
p4615
aS'From new raw data'
p4616
aS'From new raw data'
p4617
aS'From new raw data'
p4618
aS'\x00\x00\x00\x00\x00\x00\x00\x00\x00\x00\x00\x00\x00\x00'
p4619
g29
(g30
(I0
tp4620
g17
tp4621
Rp4622
(I1
(tg53
I00
(lp4623
g73
atp4624
b(g4600
NNVOther information from the published source or from NED that may be helpful in interpreting or qualifying the data.
p4625
g9
((lp4626
(lp4627
g39
aVmeta.note;comment
p4628
aatp4629
Rp4630
(lp4631
tp4632
tp4633
baatp4634
Rp4635
(dp4636
g703
VPublished and Homogenized [Frequency, Flux Density] Units
p4637
sg705
VPhotometric Data for 2MASX J22263365-2917276
p4638
sg707
VNED_PhotometricData
p4639
stp4640
bsg710
g711
sg712
g713
(g21
(S'S23'
p4641
I0
I1
tp4642
Rp4643
(I3
S'|'
p4644
NNNI23
I1
I0
tp4645
bS'2MASX J22263365-2917276'
p4646
tp4647
Rp4648
sg722
(lp4649
g713
(g91
S'\x04s\xf4\xf8=\nu@'
p4650
tp4651
Rp4652
ag713
(g91
S"\xa6',\xf1\x80J=\xc0"
p4653
tp4654
Rp4655
asa.